# SymbolsHelper-Confirmed: 4.0.4+dfsg1-3~ alpha amd64 arm64 armel armhf hppa hurd-i386 i386 ia64 m68k mips64el mipsel powerpc ppc64 ppc64el riscv64 s390x sh4 x32
libcec.so.4 libcec4 #MINVER#
 CECDestroy@Base 2.1.4
 CECInitialise@Base 2.1.4
 CECStartBootloader@Base 2.1.4
 (optional|arch=!hurd-i386)_Z11FindComPortRNSt7__cxx1112basic_stringIcSt11char_traitsIcESaIcEEE@Base 3.1.0
 _Z15ADL_AllocMemoryi@Base 2.1.4
 (optional|arch=!hurd-i386)_Z16TranslateComPortRNSt7__cxx1112basic_stringIcSt11char_traitsIcESaIcEEE@Base 3.1.0
 _Z24libcec_set_configurationPN3CEC11ICECAdapterEPNS_20libcec_configurationE@Base 3.0.1
 _Z7CECInitPKcN3CEC20cec_device_type_listE@Base 2.1.4
 (optional=templinst)_ZN10P8PLATFORM10CConditionIVbE25_PredicateCallbackDefaultEPv@Base 3.1.0
 (optional=templinst)_ZN10P8PLATFORM10CConditionIbE25_PredicateCallbackDefaultEPv@Base 3.1.0
 _ZN10P8PLATFORM11CEDIDParser18GetPhysicalAddressEv@Base 3.1.0
 _ZN10P8PLATFORM11CLockObjectD1Ev@Base 3.1.0
 _ZN10P8PLATFORM11CLockObjectD2Ev@Base 3.1.0
 _ZN10P8PLATFORM11CSerialPortD0Ev@Base 3.1.0
 _ZN10P8PLATFORM11CSerialPortD1Ev@Base 3.1.0
 _ZN10P8PLATFORM11CSerialPortD2Ev@Base 3.1.0
 (optional=templinst)_ZN10P8PLATFORM12SyncedBufferIN3CEC11cec_commandEED0Ev@Base 3.1.0
 (optional=templinst)_ZN10P8PLATFORM12SyncedBufferIN3CEC11cec_commandEED1Ev@Base 3.1.0
 (optional=templinst)_ZN10P8PLATFORM12SyncedBufferIN3CEC11cec_commandEED2Ev@Base 3.1.0
 (optional=templinst)_ZN10P8PLATFORM12SyncedBufferIPN3CEC13CCallbackWrapEED0Ev@Base 3.1.0
 (optional=templinst)_ZN10P8PLATFORM12SyncedBufferIPN3CEC13CCallbackWrapEED1Ev@Base 3.1.0
 (optional=templinst)_ZN10P8PLATFORM12SyncedBufferIPN3CEC13CCallbackWrapEED2Ev@Base 3.1.0
 (optional=templinst)_ZN10P8PLATFORM12SyncedBufferIPN3CEC28CCECAdapterMessageQueueEntryEED0Ev@Base 3.1.0
 (optional=templinst)_ZN10P8PLATFORM12SyncedBufferIPN3CEC28CCECAdapterMessageQueueEntryEED1Ev@Base 3.1.0
 (optional=templinst)_ZN10P8PLATFORM12SyncedBufferIPN3CEC28CCECAdapterMessageQueueEntryEED2Ev@Base 3.1.0
 (optional=templinst)_ZN10P8PLATFORM13CCommonSocketIiE14GetErrorNumberEv@Base 3.1.0
 (optional=templinst)_ZN10P8PLATFORM13CCommonSocketIiE7GetNameB5cxx11Ev@Base 4.0
 (optional=templinst)_ZN10P8PLATFORM13CCommonSocketIiE8GetErrorB5cxx11Ev@Base 4.0
 _ZN10P8PLATFORM13CNVEdidParser18GetPhysicalAddressEv@Base 3.1.0
 _ZN10P8PLATFORM13CNVEdidParserD0Ev@Base 3.1.0
 _ZN10P8PLATFORM13CNVEdidParserD1Ev@Base 3.1.0
 _ZN10P8PLATFORM13CNVEdidParserD2Ev@Base 3.1.0
 _ZN10P8PLATFORM13CSerialSocket11SetBaudRateEj@Base 3.1.0
 (arch-bits=64)_ZN10P8PLATFORM13CSerialSocket4OpenEm@Base 3.1.0
 (arch-bits=32)_ZN10P8PLATFORM13CSerialSocket4OpenEy@Base 3.1.0
 (arch-bits=32)_ZN10P8PLATFORM13CSerialSocket4ReadEPvjy@Base 3.1.0
 (arch-bits=64)_ZN10P8PLATFORM13CSerialSocket4ReadEPvmm@Base 3.1.0
 _ZN10P8PLATFORM13CSerialSocket5CloseEv@Base 3.1.0
 (arch-bits=32)_ZN10P8PLATFORM13CSerialSocket5WriteEPvj@Base 3.1.0
 (arch-bits=64)_ZN10P8PLATFORM13CSerialSocket5WriteEPvm@Base 3.1.0
 _ZN10P8PLATFORM13CSerialSocket6IsOpenEv@Base 3.1.0
 _ZN10P8PLATFORM13CSerialSocket8ShutdownEv@Base 3.1.0
 _ZN10P8PLATFORM13CSerialSocketD0Ev@Base 3.1.0
 _ZN10P8PLATFORM13CSerialSocketD1Ev@Base 3.1.0
 _ZN10P8PLATFORM13CSerialSocketD2Ev@Base 3.1.0
 _ZN10P8PLATFORM14CADLEdidParser10InitialiseEv@Base 3.1.0
 _ZN10P8PLATFORM14CADLEdidParser11OpenLibraryEv@Base 3.1.0
 _ZN10P8PLATFORM14CADLEdidParser12CloseLibraryEv@Base 3.1.0
 _ZN10P8PLATFORM14CADLEdidParser14GetAdapterEDIDEiiP18ADLDisplayEDIDData@Base 3.1.0
 _ZN10P8PLATFORM14CADLEdidParser14GetAdapterInfoEi@Base 3.1.0
 _ZN10P8PLATFORM14CADLEdidParser14GetNumAdaptersEv@Base 3.1.0
 _ZN10P8PLATFORM14CADLEdidParser18GetPhysicalAddressEv@Base 3.1.0
 _ZN10P8PLATFORM14CADLEdidParserC1Ev@Base 3.1.0
 _ZN10P8PLATFORM14CADLEdidParserC2Ev@Base 3.1.0
 _ZN10P8PLATFORM14CADLEdidParserD0Ev@Base 3.1.0
 _ZN10P8PLATFORM14CADLEdidParserD1Ev@Base 3.1.0
 _ZN10P8PLATFORM14CADLEdidParserD2Ev@Base 3.1.0
 _ZN10P8PLATFORM14CConditionImplD0Ev@Base 3.1.0
 _ZN10P8PLATFORM14CConditionImplD1Ev@Base 3.1.0
 _ZN10P8PLATFORM14CConditionImplD2Ev@Base 3.1.0
 _ZN10P8PLATFORM14CDRMEdidParser18GetPhysicalAddressEv@Base 4.0.2
 _ZN10P8PLATFORM14CDRMEdidParserD0Ev@Base 4.0.2
 _ZN10P8PLATFORM14CDRMEdidParserD1Ev@Base 4.0.2
 _ZN10P8PLATFORM14CDRMEdidParserD2Ev@Base 4.0.2
 (optional=templinst)_ZN10P8PLATFORM16CProtectedSocketINS_13CSerialSocketEE14GetErrorNumberEv@Base 3.1.0
 (arch-bits=64)_ZN10P8PLATFORM16CProtectedSocketINS_13CSerialSocketEE4OpenEm@Base 3.1.0
 (arch-bits=32)_ZN10P8PLATFORM16CProtectedSocketINS_13CSerialSocketEE4OpenEy@Base 3.1.0
 (arch-bits=32)_ZN10P8PLATFORM16CProtectedSocketINS_13CSerialSocketEE4ReadEPvjy@Base 3.1.0
 (arch-bits=64)_ZN10P8PLATFORM16CProtectedSocketINS_13CSerialSocketEE4ReadEPvmm@Base 3.1.0
 (optional=templinst)_ZN10P8PLATFORM16CProtectedSocketINS_13CSerialSocketEE5CloseEv@Base 3.1.0
 (arch-bits=32)_ZN10P8PLATFORM16CProtectedSocketINS_13CSerialSocketEE5WriteEPvj@Base 3.1.0
 (arch-bits=64)_ZN10P8PLATFORM16CProtectedSocketINS_13CSerialSocketEE5WriteEPvm@Base 3.1.0
 (optional=templinst)_ZN10P8PLATFORM16CProtectedSocketINS_13CSerialSocketEE6IsBusyEv@Base 3.1.0
 (optional=templinst)_ZN10P8PLATFORM16CProtectedSocketINS_13CSerialSocketEE6IsIdleEv@Base 3.1.0
 (optional=templinst)_ZN10P8PLATFORM16CProtectedSocketINS_13CSerialSocketEE6IsOpenEv@Base 3.1.0
 (optional=templinst)_ZN10P8PLATFORM16CProtectedSocketINS_13CSerialSocketEE7GetNameB5cxx11Ev@Base 4.0
 (optional=templinst)_ZN10P8PLATFORM16CProtectedSocketINS_13CSerialSocketEE8GetErrorB5cxx11Ev@Base 4.0
 (optional=templinst)_ZN10P8PLATFORM16CProtectedSocketINS_13CSerialSocketEE8ShutdownEv@Base 3.1.0
 (optional=templinst)_ZN10P8PLATFORM16CProtectedSocketINS_13CSerialSocketEED0Ev@Base 3.1.0
 (optional=templinst)_ZN10P8PLATFORM16CProtectedSocketINS_13CSerialSocketEED1Ev@Base 3.1.0
 (optional=templinst)_ZN10P8PLATFORM16CProtectedSocketINS_13CSerialSocketEED2Ev@Base 3.1.0
 _ZN10P8PLATFORM16CRandrEdidParser18GetPhysicalAddressEv@Base 3.1.0
 _ZN10P8PLATFORM16CRandrEdidParserD0Ev@Base 4.0.1
 _ZN10P8PLATFORM16CRandrEdidParserD1Ev@Base 4.0.1
 _ZN10P8PLATFORM16CRandrEdidParserD2Ev@Base 4.0.1
 _ZN10P8PLATFORM6CEventD0Ev@Base 3.1.0
 _ZN10P8PLATFORM6CEventD1Ev@Base 3.1.0
 _ZN10P8PLATFORM6CEventD2Ev@Base 3.1.0
 _ZN10P8PLATFORM6CMutex5ClearEv@Base 3.1.0
 _ZN10P8PLATFORM7CThread10StopThreadEi@Base 3.1.0
 _ZN10P8PLATFORM7CThread12CreateThreadEb@Base 3.1.0
 _ZN10P8PLATFORM7CThread13ThreadHandlerEPv@Base 3.1.0
 _ZN10P8PLATFORM7CThread5SleepEj@Base 3.1.0
 _ZN10P8PLATFORM7CThread9IsRunningEv@Base 3.1.0
 _ZN10P8PLATFORM7CThread9IsStoppedEv@Base 3.1.0
 _ZN10P8PLATFORM7CThreadD0Ev@Base 3.1.0
 _ZN10P8PLATFORM7CThreadD1Ev@Base 3.1.0
 _ZN10P8PLATFORM7CThreadD2Ev@Base 3.1.0
 _ZN3CEC10CCECClient10AddCommandERKNS_11cec_commandE@Base 2.1.4
 _ZN3CEC10CCECClient10GetOSDNameB5cxx11Ev@Base 3.0.1
 _ZN3CEC10CCECClient10OnRegisterEv@Base 2.1.4
 _ZN3CEC10CCECClient10PollDeviceENS_19cec_logical_addressE@Base 2.1.4
 _ZN3CEC10CCECClient10QueueAlertENS_12libcec_alertERKNS_16libcec_parameterE@Base 3.0.1
 _ZN3CEC10CCECClient10SetOSDNameERKNSt7__cxx1112basic_stringIcSt11char_traitsIcESaIcEEE@Base 3.0.1
 _ZN3CEC10CCECClient11AudioEnableEb@Base 4.0
 _ZN3CEC10CCECClient11AudioStatusEv@Base 2.1.4
 _ZN3CEC10CCECClient11AudioUnmuteEv@Base 2.1.4
 _ZN3CEC10CCECClient11PingAdapterEv@Base 2.1.4
 _ZN3CEC10CCECClient11QueueAddKeyERKNS_12cec_keypressE@Base 3.0.1
 _ZN3CEC10CCECClient11QueueAddLogERKNS_19cec_log_message_cppE@Base 4.0
 _ZN3CEC10CCECClient11SetHDMIPortENS_19cec_logical_addressEhb@Base 2.1.4
 _ZN3CEC10CCECClient12IsRegisteredEv@Base 2.1.4
 _ZN3CEC10CCECClient12OnUnregisterEv@Base 2.1.4
 _ZN3CEC10CCECClient12SendKeypressENS_19cec_logical_addressENS_21cec_user_control_codeEb@Base 2.1.4
 _ZN3CEC10CCECClient12SendVolumeUpEb@Base 2.1.4
 _ZN3CEC10CCECClient13CallbackAlertENS_12libcec_alertERKNS_16libcec_parameterE@Base 2.1.4
 _ZN3CEC10CCECClient13IsInitialisedEv@Base 2.1.4
 _ZN3CEC10CCECClient13SendMuteAudioEv@Base 2.1.4
 _ZN3CEC10CCECClient13SetRegisteredEb@Base 2.1.4
 _ZN3CEC10CCECClient13SetStreamPathENS_19cec_logical_addressE@Base 2.1.4
 _ZN3CEC10CCECClient13SetStreamPathEt@Base 2.1.4
 _ZN3CEC10CCECClient14CallbackAddKeyERKNS_12cec_keypressE@Base 2.1.4
 _ZN3CEC10CCECClient14CallbackAddLogERKNS_19cec_log_message_cppE@Base 4.0
 _ZN3CEC10CCECClient14GetDeviceTypesEv@Base 2.1.4
 _ZN3CEC10CCECClient14GetWakeDevicesEv@Base 2.1.4
 _ZN3CEC10CCECClient14IsActiveDeviceENS_19cec_logical_addressE@Base 2.1.4
 _ZN3CEC10CCECClient14IsActiveSourceENS_19cec_logical_addressE@Base 2.1.4
 _ZN3CEC10CCECClient14SendKeyReleaseENS_19cec_logical_addressEb@Base 2.1.4
 _ZN3CEC10CCECClient14SendVolumeDownEb@Base 2.1.4
 _ZN3CEC10CCECClient14SetDeviceTypesERKNS_20cec_device_type_listE@Base 2.1.4
 _ZN3CEC10CCECClient14SetInitialisedEb@Base 2.1.4
 _ZN3CEC10CCECClient14SetWakeDevicesERKNS_21cec_logical_addressesE@Base 2.1.4
 _ZN3CEC10CCECClient15AudioToggleMuteEv@Base 2.1.4
 _ZN3CEC10CCECClient15EnableCallbacksEPvPNS_13ICECCallbacksE@Base 2.1.4
 _ZN3CEC10CCECClient15GetActiveSourceEv@Base 2.1.4
 _ZN3CEC10CCECClient15QueueAddCommandERKNS_11cec_commandE@Base 3.0.1
 _ZN3CEC10CCECClient15SendSetDeckInfoENS_13cec_deck_infoEb@Base 2.1.4
 _ZN3CEC10CCECClient15SourceActivatedENS_19cec_logical_addressE@Base 2.1.4
 _ZN3CEC10CCECClient16ChangeDeviceTypeENS_15cec_device_typeES1_@Base 2.1.4
 _ZN3CEC10CCECClient16GetActiveDevicesEv@Base 2.1.4
 _ZN3CEC10CCECClient16GetClientVersionEv@Base 2.1.4
 _ZN3CEC10CCECClient16GetConfigurationEv@Base 2.1.4
 _ZN3CEC10CCECClient16GetDeviceOSDNameB5cxx11ENS_19cec_logical_addressE@Base 4.0
 _ZN3CEC10CCECClient16GetPrimaryDeviceEv@Base 2.1.4
 _ZN3CEC10CCECClient16SendSetMenuStateENS_14cec_menu_stateEb@Base 2.1.4
 _ZN3CEC10CCECClient16SendSetOSDStringENS_19cec_logical_addressENS_19cec_display_controlEPKc@Base 2.1.4
 _ZN3CEC10CCECClient16SetClientVersionEj@Base 3.0.1
 _ZN3CEC10CCECClient16SetConfigurationERKNS_20libcec_configurationE@Base 2.1.4
 _ZN3CEC10CCECClient16SetCurrentButtonENS_21cec_user_control_codeE@Base 2.1.4
 _ZN3CEC10CCECClient16SwitchMonitoringEb@Base 2.1.4
 _ZN3CEC10CCECClient17GetConnectionInfoB5cxx11Ev@Base 3.0.1
 _ZN3CEC10CCECClient17GetDeviceVendorIdENS_19cec_logical_addressE@Base 2.1.4
 _ZN3CEC10CCECClient17GetPlaybackDeviceEv@Base 2.1.4
 _ZN3CEC10CCECClient17SetLogicalAddressENS_19cec_logical_addressE@Base 2.1.4
 _ZN3CEC10CCECClient17SourceDeactivatedENS_19cec_logical_addressE@Base 2.1.4
 _ZN3CEC10CCECClient18CallbackAddCommandERKNS_11cec_commandE@Base 2.1.4
 _ZN3CEC10CCECClient18DoubleTapTimeoutMSEv@Base 2.2.0
 _ZN3CEC10CCECClient18IsActiveDeviceTypeENS_15cec_device_typeE@Base 2.1.4
 _ZN3CEC10CCECClient18SendPowerOnDevicesENS_19cec_logical_addressE@Base 2.1.4
 _ZN3CEC10CCECClient18SendStandbyDevicesENS_19cec_logical_addressE@Base 2.1.4
 _ZN3CEC10CCECClient18SetPhysicalAddressERKNS_20libcec_configurationE@Base 2.1.4
 _ZN3CEC10CCECClient18SetPhysicalAddressEt@Base 2.1.4
 _ZN3CEC10CCECClient19GetDeviceCecVersionENS_19cec_logical_addressE@Base 2.1.4
 _ZN3CEC10CCECClient19GetLogicalAddressesEv@Base 2.1.4
 _ZN3CEC10CCECClient19GetTVVendorOverrideEv@Base 2.1.4
 _ZN3CEC10CCECClient19RescanActiveDevicesEv@Base 2.1.4
 _ZN3CEC10CCECClient19SendSetActiveSourceENS_15cec_device_typeE@Base 2.1.4
 _ZN3CEC10CCECClient19SendSetInactiveViewEv@Base 2.1.4
 _ZN3CEC10CCECClient19SetTVVendorOverrideENS_13cec_vendor_idE@Base 2.1.4
 _ZN3CEC10CCECClient20CheckKeypressTimeoutEv@Base 2.1.4
 _ZN3CEC10CCECClient20GetDevicePowerStatusENS_19cec_logical_addressE@Base 2.1.4
 _ZN3CEC10CCECClient20IsLibCECActiveSourceEv@Base 2.1.4
 _ZN3CEC10CCECClient20PersistConfigurationERKNS_20libcec_configurationE@Base 2.1.4
 _ZN3CEC10CCECClient20QueueSourceActivatedEbNS_19cec_logical_addressE@Base 3.0.1
 _ZN3CEC10CCECClient20ResetPhysicalAddressEv@Base 2.1.4
 _ZN3CEC10CCECClient21GetDeviceMenuLanguageB5cxx11ENS_19cec_logical_addressE@Base 4.0
 _ZN3CEC10CCECClient21QueueMenuStateChangedENS_14cec_menu_stateE@Base 3.0.1
 _ZN3CEC10CCECClient22SendSetDeckControlModeENS_21cec_deck_control_modeEb@Base 2.1.4
 _ZN3CEC10CCECClient23CallbackSourceActivatedEbNS_19cec_logical_addressE@Base 2.1.4
 _ZN3CEC10CCECClient23CanPersistConfigurationEv@Base 2.1.4
 _ZN3CEC10CCECClient23GetCurrentConfigurationERNS_20libcec_configurationE@Base 2.1.4
 _ZN3CEC10CCECClient23SetSupportedDeviceTypesEv@Base 2.1.4
 _ZN3CEC10CCECClient24AllocateLogicalAddressesEv@Base 2.1.4
 _ZN3CEC10CCECClient24CallbackMenuStateChangedENS_14cec_menu_stateE@Base 2.1.4
 _ZN3CEC10CCECClient24GetDevicePhysicalAddressENS_19cec_logical_addressE@Base 2.1.4
 _ZN3CEC10CCECClient24GetPrimaryLogicalAddressEv@Base 4.0
 _ZN3CEC10CCECClient24SetDevicePhysicalAddressEt@Base 2.1.4
 _ZN3CEC10CCECClient25AutodetectPhysicalAddressEv@Base 2.1.4
 _ZN3CEC10CCECClient25QueueConfigurationChangedERKNS_20libcec_configurationE@Base 3.0.1
 _ZN3CEC10CCECClient27AllocateLogicalAddressTunerEv@Base 2.1.4
 _ZN3CEC10CCECClient28CallbackConfigurationChangedERKNS_20libcec_configurationE@Base 2.1.4
 _ZN3CEC10CCECClient33AllocateLogicalAddressAudioSystemEv@Base 2.1.4
 _ZN3CEC10CCECClient36AllocateLogicalAddressPlaybackDeviceEv@Base 2.1.4
 _ZN3CEC10CCECClient37AllocateLogicalAddressRecordingDeviceEv@Base 2.1.4
 _ZN3CEC10CCECClient5AlertENS_12libcec_alertERKNS_16libcec_parameterE@Base 2.1.4
 _ZN3CEC10CCECClient6AddKeyERKNS_12cec_keypressE@Base 2.1.4
 _ZN3CEC10CCECClient6AddKeyEbb@Base 3.1.0
 _ZN3CEC10CCECClient6AddLogERKNS_19cec_log_message_cppE@Base 4.0
 _ZN3CEC10CCECClient7ProcessEv@Base 3.0.1
 _ZN3CEC10CCECClient8TransmitERKNS_11cec_commandEb@Base 2.1.4
 _ZN3CEC10CCECClient9AudioMuteEv@Base 2.1.4
 _ZN3CEC10CCECClientC1EPNS_13CCECProcessorERKNS_20libcec_configurationE@Base 2.1.4
 _ZN3CEC10CCECClientC2EPNS_13CCECProcessorERKNS_20libcec_configurationE@Base 2.1.4
 _ZN3CEC10CCECClientD0Ev@Base 2.1.4
 _ZN3CEC10CCECClientD1Ev@Base 2.1.4
 _ZN3CEC10CCECClientD2Ev@Base 2.1.4
 _ZN3CEC11ICECAdapter8ToStringENS_13cec_vendor_idE@Base 3.0.1
 _ZN3CEC13CCECBusDevice10GetHandlerEv@Base 2.1.4
 _ZN3CEC13CCECBusDevice10GetOSDNameB5cxx11ENS_19cec_logical_addressEb@Base 3.0.1
 _ZN3CEC13CCECBusDevice10HandlePollENS_19cec_logical_addressE@Base 2.1.4
 _ZN3CEC13CCECBusDevice10SetOSDNameERKNSt7__cxx1112basic_stringIcSt11char_traitsIcESaIcEEE@Base 3.0.1
 _ZN3CEC13CCECBusDevice11GetVendorIdENS_19cec_logical_addressEb@Base 2.1.4
 (arch-bits=64)_ZN3CEC13CCECBusDevice11SetVendorIdEm@Base 3.1.0
 (arch-bits=32)_ZN3CEC13CCECBusDevice11SetVendorIdEy@Base 3.1.0
 _ZN3CEC13CCECBusDevice12GetMenuStateENS_19cec_logical_addressE@Base 2.1.4
 _ZN3CEC13CCECBusDevice12SetMenuStateENS_14cec_menu_stateE@Base 2.1.4
 _ZN3CEC13CCECBusDevice12SignalOpcodeENS_10cec_opcodeE@Base 2.1.4
 _ZN3CEC13CCECBusDevice12TransmitPollENS_19cec_logical_addressEb@Base 2.1.4
 _ZN3CEC13CCECBusDevice13AsAudioSystemEPS0_@Base 2.1.4
 _ZN3CEC13CCECBusDevice13AsAudioSystemEv@Base 2.1.4
 _ZN3CEC13CCECBusDevice13GetCecVersionENS_19cec_logical_addressEb@Base 2.1.4
 _ZN3CEC13CCECBusDevice13GetVendorNameENS_19cec_logical_addressEb@Base 2.1.4
 _ZN3CEC13CCECBusDevice13HandleCommandERKNS_11cec_commandE@Base 2.1.4
 _ZN3CEC13CCECBusDevice13SetCecVersionENS_11cec_versionE@Base 2.1.4
 _ZN3CEC13CCECBusDevice13SetStreamPathEtt@Base 2.1.4
 _ZN3CEC13CCECBusDevice13WaitForOpcodeENS_10cec_opcodeE@Base 2.1.4
 (arch-bits=64)_ZN3CEC13CCECBusDevice14ActivateSourceEm@Base 3.1.0
 (arch-bits=32)_ZN3CEC13CCECBusDevice14ActivateSourceEy@Base 3.1.0
 _ZN3CEC13CCECBusDevice14GetPowerStatusENS_19cec_logical_addressEb@Base 2.1.4
 _ZN3CEC13CCECBusDevice14HandlePollFromENS_19cec_logical_addressE@Base 2.1.4
 _ZN3CEC13CCECBusDevice14ReplaceHandlerEb@Base 2.1.4
 _ZN3CEC13CCECBusDevice14RequestOSDNameENS_19cec_logical_addressEb@Base 2.1.4
 _ZN3CEC13CCECBusDevice14SetActiveRouteEt@Base 2.1.4
 _ZN3CEC13CCECBusDevice14SetPowerStatusENS_16cec_power_statusE@Base 2.1.4
 _ZN3CEC13CCECBusDevice15GetMenuLanguageB5cxx11ENS_19cec_logical_addressEb@Base 4.0
 _ZN3CEC13CCECBusDevice15ImageViewOnSentEv@Base 2.1.4
 _ZN3CEC13CCECBusDevice15RequestVendorIdENS_19cec_logical_addressEb@Base 2.1.4
 _ZN3CEC13CCECBusDevice15SetDeviceStatusENS_21cec_bus_device_statusENS_11cec_versionE@Base 2.1.4
 _ZN3CEC13CCECBusDevice15SetMenuLanguageERA4_Kc@Base 4.0
 _ZN3CEC13CCECBusDevice15SetMenuLanguageERKNSt7__cxx1112basic_stringIcSt11char_traitsIcESaIcEEE@Base 4.0
 _ZN3CEC13CCECBusDevice15TransmitOSDNameENS_19cec_logical_addressEb@Base 2.1.4
 _ZN3CEC13CCECBusDevice16AsPlaybackDeviceEPS0_@Base 2.1.4
 _ZN3CEC13CCECBusDevice16AsPlaybackDeviceEv@Base 2.1.4
 _ZN3CEC13CCECBusDevice16GetCurrentStatusEv@Base 2.1.4
 _ZN3CEC13CCECBusDevice16MarkHandlerReadyEv@Base 2.1.4
 _ZN3CEC13CCECBusDevice16TransmitKeypressENS_19cec_logical_addressENS_21cec_user_control_codeEb@Base 2.1.4
 _ZN3CEC13CCECBusDevice16TransmitVendorIDENS_19cec_logical_addressEbb@Base 2.1.4
 _ZN3CEC13CCECBusDevice16TransmitVolumeUpENS_19cec_logical_addressEb@Base 4.0
 _ZN3CEC13CCECBusDevice17AsRecordingDeviceEPS0_@Base 2.1.4
 _ZN3CEC13CCECBusDevice17AsRecordingDeviceEv@Base 2.1.4
 _ZN3CEC13CCECBusDevice17GetCurrentOSDNameB5cxx11Ev@Base 3.0.1
 _ZN3CEC13CCECBusDevice17IsHandledByLibCECEv@Base 2.1.4
 _ZN3CEC13CCECBusDevice17OnImageViewOnSentEb@Base 2.1.4
 _ZN3CEC13CCECBusDevice17RequestCecVersionENS_19cec_logical_addressEb@Base 2.1.4
 _ZN3CEC13CCECBusDevice17ResetDeviceStatusEb@Base 2.1.4
 _ZN3CEC13CCECBusDevice17TransmitMenuStateENS_19cec_logical_addressEb@Base 2.1.4
 _ZN3CEC13CCECBusDevice17TransmitMuteAudioENS_19cec_logical_addressE@Base 4.0
 _ZN3CEC13CCECBusDevice17TransmitOSDStringENS_19cec_logical_addressENS_19cec_display_controlEPKcb@Base 2.1.4
 _ZN3CEC13CCECBusDevice17TryLogicalAddressENS_11cec_versionE@Base 2.1.4
 _ZN3CEC13CCECBusDevice18GetCurrentVendorIdEv@Base 2.1.4
 _ZN3CEC13CCECBusDevice18GetPhysicalAddressENS_19cec_logical_addressEb@Base 2.1.4
 _ZN3CEC13CCECBusDevice18MarkAsActiveSourceEv@Base 2.1.4
 _ZN3CEC13CCECBusDevice18RequestPowerStatusENS_19cec_logical_addressEbb@Base 2.1.4
 _ZN3CEC13CCECBusDevice18SetPhysicalAddressEt@Base 2.1.4
 _ZN3CEC13CCECBusDevice18TransmitCECVersionENS_19cec_logical_addressEb@Base 2.1.4
 _ZN3CEC13CCECBusDevice18TransmitKeyReleaseENS_19cec_logical_addressEb@Base 2.1.4
 _ZN3CEC13CCECBusDevice18TransmitPowerStateENS_19cec_logical_addressEb@Base 2.1.4
 _ZN3CEC13CCECBusDevice18TransmitVolumeDownENS_19cec_logical_addressEb@Base 4.0
 _ZN3CEC13CCECBusDevice19HandleReceiveFailedEv@Base 2.1.4
 _ZN3CEC13CCECBusDevice19RequestActiveSourceEb@Base 2.1.4
 _ZN3CEC13CCECBusDevice19RequestMenuLanguageENS_19cec_logical_addressEb@Base 2.1.4
 _ZN3CEC13CCECBusDevice19SetActiveSourceSentEb@Base 4.0.3+dfsg1-1~
 _ZN3CEC13CCECBusDevice19TransmitImageViewOnEv@Base 2.1.4
 _ZN3CEC13CCECBusDevice20IsUnsupportedFeatureENS_10cec_opcodeE@Base 2.1.4
 _ZN3CEC13CCECBusDevice20MarkAsInactiveSourceEb@Base 2.1.4
 _ZN3CEC13CCECBusDevice20TransmitActiveSourceEb@Base 2.1.4
 _ZN3CEC13CCECBusDevice21GetCurrentPowerStatusEv@Base 2.1.4
 _ZN3CEC13CCECBusDevice21SetUnsupportedFeatureENS_10cec_opcodeE@Base 2.1.4
 _ZN3CEC13CCECBusDevice22CheckVendorIdRequestedENS_19cec_logical_addressE@Base 2.1.4
 _ZN3CEC13CCECBusDevice22RequestPhysicalAddressENS_19cec_logical_addressEb@Base 2.1.4
 _ZN3CEC13CCECBusDevice22SystemAudioModeRequestEv@Base 4.0
 _ZN3CEC13CCECBusDevice22TransmitInactiveSourceEv@Base 2.1.4
 _ZN3CEC13CCECBusDevice23HasValidPhysicalAddressEv@Base 2.1.4
 _ZN3CEC13CCECBusDevice23TransmitPhysicalAddressEb@Base 2.1.4
 _ZN3CEC13CCECBusDevice23TransmitSetMenuLanguageENS_19cec_logical_addressEb@Base 2.1.4
 _ZN3CEC13CCECBusDevice25GetCurrentPhysicalAddressEv@Base 2.1.4
 _ZN3CEC13CCECBusDevice35TransmitPendingActiveSourceCommandsEv@Base 2.1.4
 _ZN3CEC13CCECBusDevice4AsTVEPS0_@Base 2.1.4
 _ZN3CEC13CCECBusDevice4AsTVEv@Base 2.1.4
 _ZN3CEC13CCECBusDevice7AsTunerEPS0_@Base 2.1.4
 _ZN3CEC13CCECBusDevice7AsTunerEv@Base 2.1.4
 _ZN3CEC13CCECBusDevice7PowerOnENS_19cec_logical_addressE@Base 2.1.4
 _ZN3CEC13CCECBusDevice7StandbyENS_19cec_logical_addressE@Base 2.1.4
 _ZN3CEC13CCECBusDevice8MarkBusyEv@Base 2.1.4
 _ZN3CEC13CCECBusDevice9GetClientEv@Base 2.1.4
 _ZN3CEC13CCECBusDevice9GetStatusEbb@Base 2.1.4
 _ZN3CEC13CCECBusDevice9IsPresentEv@Base 2.1.4
 _ZN3CEC13CCECBusDevice9MarkReadyEv@Base 2.1.4
 _ZN3CEC13CCECBusDevice9NeedsPollEv@Base 2.1.4
 _ZN3CEC13CCECBusDeviceC1EPNS_13CCECProcessorENS_19cec_logical_addressEt@Base 2.1.4
 _ZN3CEC13CCECBusDeviceC2EPNS_13CCECProcessorENS_19cec_logical_addressEt@Base 2.1.4
 _ZN3CEC13CCECBusDeviceD0Ev@Base 2.1.4
 _ZN3CEC13CCECBusDeviceD1Ev@Base 2.1.4
 _ZN3CEC13CCECBusDeviceD2Ev@Base 2.1.4
 _ZN3CEC13CCECDeviceMap10FilterTypeENS_15cec_device_typeERSt6vectorIPNS_13CCECBusDeviceESaIS4_EE@Base 2.1.4
 _ZN3CEC13CCECDeviceMap11FilterTypesERKNS_20cec_device_type_listERSt6vectorIPNS_13CCECBusDeviceESaIS6_EE@Base 2.1.4
 _ZN3CEC13CCECDeviceMap12FilterActiveERSt6vectorIPNS_13CCECBusDeviceESaIS3_EE@Base 2.1.4
 _ZN3CEC13CCECDeviceMap17ResetDeviceStatusEv@Base 2.1.4
 _ZN3CEC13CCECDeviceMap18ToLogicalAddressesERKSt6vectorIPNS_13CCECBusDeviceESaIS3_EE@Base 2.1.4
 _ZN3CEC13CCECDeviceMap21GetByLogicalAddressesERSt6vectorIPNS_13CCECBusDeviceESaIS3_EERKNS_21cec_logical_addressesE@Base 2.1.4
 _ZN3CEC13CCECDeviceMap21ResetActiveSourceSentEv@Base 4.0.3+dfsg1-1~
 _ZN3CEC13CCECDeviceMap22FilterLibCECControlledERSt6vectorIPNS_13CCECBusDeviceESaIS3_EE@Base 2.1.4
 _ZN3CEC13CCECDeviceMap26GetDeviceByPhysicalAddressEtb@Base 2.1.4
 _ZN3CEC13CCECDeviceMap3EndEv@Base 2.1.4
 _ZN3CEC13CCECDeviceMap5BeginEv@Base 2.1.4
 _ZN3CEC13CCECDeviceMap5ClearEv@Base 2.1.4
 _ZN3CEC13CCECDeviceMap9SignalAllENS_10cec_opcodeE@Base 2.1.4
 _ZN3CEC13CCECDeviceMapC1EPNS_13CCECProcessorE@Base 2.1.4
 _ZN3CEC13CCECDeviceMapC2EPNS_13CCECProcessorE@Base 2.1.4
 _ZN3CEC13CCECDeviceMapD0Ev@Base 2.1.4
 _ZN3CEC13CCECDeviceMapD1Ev@Base 2.1.4
 _ZN3CEC13CCECDeviceMapD2Ev@Base 2.1.4
 _ZN3CEC13CCECProcessor10HandlePollENS_19cec_logical_addressES1_@Base 2.1.4
 _ZN3CEC13CCECProcessor10PollDeviceENS_19cec_logical_addressE@Base 2.1.4
 _ZN3CEC13CCECProcessor11PingAdapterEv@Base 2.1.4
 _ZN3CEC13CCECProcessor11SetAutoModeEb@Base 4.0.3+dfsg1-1~
 _ZN3CEC13CCECProcessor12ResetMembersEv@Base 2.1.4
 _ZN3CEC13CCECProcessor13PowerOnDeviceENS_19cec_logical_addressES1_@Base 2.1.4
 _ZN3CEC13CCECProcessor13StandbyDeviceENS_19cec_logical_addressES1_@Base 2.1.4
 _ZN3CEC13CCECProcessor13TransmitAbortENS_19cec_logical_addressES1_NS_10cec_opcodeENS_16cec_abort_reasonE@Base 2.1.4
 _ZN3CEC13CCECProcessor14ActivateSourceEt@Base 2.1.4
 _ZN3CEC13CCECProcessor14CECInitialisedEv@Base 2.1.4
 _ZN3CEC13CCECProcessor14IsActiveSourceENS_19cec_logical_addressE@Base 2.1.4
 _ZN3CEC13CCECProcessor14OpenConnectionEPKctjb@Base 2.1.4
 _ZN3CEC13CCECProcessor14PowerOnDevicesENS_19cec_logical_addressERKSt6vectorIPNS_13CCECBusDeviceESaIS4_EE@Base 2.1.4
 _ZN3CEC13CCECProcessor14ProcessCommandERKNS_11cec_commandE@Base 2.1.4
 _ZN3CEC13CCECProcessor14RegisterClientEPNS_10CCECClientE@Base 2.1.4
 _ZN3CEC13CCECProcessor14RegisterClientESt10shared_ptrINS_10CCECClientEE@Base 3.0.1
 _ZN3CEC13CCECProcessor14StandbyDevicesENS_19cec_logical_addressERKSt6vectorIPNS_13CCECBusDeviceESaIS4_EE@Base 2.1.4
 _ZN3CEC13CCECProcessor15GetActiveSourceEb@Base 2.1.4
 _ZN3CEC13CCECProcessor15IsPresentDeviceENS_19cec_logical_addressE@Base 2.1.4
 _ZN3CEC13CCECProcessor15ReplaceHandlersEv@Base 2.1.4
 _ZN3CEC13CCECProcessor15SetActiveSourceEbb@Base 2.1.4
 _ZN3CEC13CCECProcessor15StartBootloaderEPKc@Base 2.1.4
 _ZN3CEC13CCECProcessor16ChangeDeviceTypeESt10shared_ptrINS_10CCECClientEENS_15cec_device_typeES4_@Base 3.0.1
 _ZN3CEC13CCECProcessor16GetPrimaryClientEv@Base 2.1.4
 _ZN3CEC13CCECProcessor16GetPrimaryDeviceEv@Base 2.1.4
 _ZN3CEC13CCECProcessor16SwitchMonitoringEb@Base 2.1.4
 _ZN3CEC13CCECProcessor16UnregisterClientEPNS_10CCECClientE@Base 2.1.4
 _ZN3CEC13CCECProcessor16UnregisterClientESt10shared_ptrINS_10CCECClientEE@Base 3.0.1
 _ZN3CEC13CCECProcessor17GetLogicalAddressEv@Base 2.1.4
 _ZN3CEC13CCECProcessor17OnCommandReceivedERKNS_11cec_commandE@Base 2.1.4
 _ZN3CEC13CCECProcessor17SetCECInitialisedEb@Base 2.1.4
 _ZN3CEC13CCECProcessor17TryLogicalAddressENS_19cec_logical_addressENS_11cec_versionE@Base 2.1.4
 _ZN3CEC13CCECProcessor17UnregisterClientsEv@Base 2.1.4
 _ZN3CEC13CCECProcessor19GetLogicalAddressesEv@Base 2.1.4
 _ZN3CEC13CCECProcessor19GetRetryLineTimeoutEv@Base 2.1.4
 _ZN3CEC13CCECProcessor19HandleReceiveFailedENS_19cec_logical_addressE@Base 2.1.4
 _ZN3CEC13CCECProcessor19IsPresentDeviceTypeENS_15cec_device_typeE@Base 2.1.4
 _ZN3CEC13CCECProcessor19RescanActiveDevicesEv@Base 2.1.4
 _ZN3CEC13CCECProcessor19SetLogicalAddressesERKNS_21cec_logical_addressesE@Base 2.1.4
 _ZN3CEC13CCECProcessor19SetRetryLineTimeoutEh@Base 2.1.4
 _ZN3CEC13CCECProcessor20GetDeviceInformationEPKcPNS_20libcec_configurationEj@Base 2.1.4
 _ZN3CEC13CCECProcessor20PersistConfigurationERKNS_20libcec_configurationE@Base 2.1.4
 _ZN3CEC13CCECProcessor20PhysicalAddressInUseEt@Base 2.1.4
 _ZN3CEC13CCECProcessor21ClearLogicalAddressesEv@Base 2.1.4
 _ZN3CEC13CCECProcessor22GetStandardLineTimeoutEv@Base 2.1.4
 _ZN3CEC13CCECProcessor22SetStandardLineTimeoutEh@Base 2.1.4
 _ZN3CEC13CCECProcessor23CanPersistConfigurationEv@Base 2.1.4
 _ZN3CEC13CCECProcessor23IsRunningLatestFirmwareEv@Base 2.1.4
 _ZN3CEC13CCECProcessor24AllocateLogicalAddressesESt10shared_ptrINS_10CCECClientEE@Base 3.0.1
 _ZN3CEC13CCECProcessor24HandleLogicalAddressLostENS_19cec_logical_addressE@Base 2.1.4
 _ZN3CEC13CCECProcessor26GetDeviceByPhysicalAddressEtb@Base 2.1.4
 _ZN3CEC13CCECProcessor28GetPhysicalAddressFromEepromEv@Base 2.1.4
 _ZN3CEC13CCECProcessor28HandlePhysicalAddressChangedEt@Base 2.1.4
 _ZN3CEC13CCECProcessor35TransmitPendingActiveSourceCommandsEv@Base 2.1.4
 _ZN3CEC13CCECProcessor5CloseEv@Base 2.1.4
 _ZN3CEC13CCECProcessor5StartEPKctj@Base 2.1.4
 _ZN3CEC13CCECProcessor7ProcessEv@Base 2.1.4
 _ZN3CEC13CCECProcessor8TransmitERKNS_11cec_commandEb@Base 2.1.4
 _ZN3CEC13CCECProcessor9GetClientENS_19cec_logical_addressE@Base 2.1.4
 _ZN3CEC13CCECProcessor9LogOutputERKNS_11cec_commandE@Base 2.1.4
 _ZN3CEC13CCECProcessorC1EPNS_7CLibCECE@Base 2.1.4
 _ZN3CEC13CCECProcessorC2EPNS_7CLibCECE@Base 2.1.4
 _ZN3CEC13CCECProcessorD0Ev@Base 2.1.4
 _ZN3CEC13CCECProcessorD1Ev@Base 2.1.4
 _ZN3CEC13CCECProcessorD2Ev@Base 2.1.4
 _ZN3CEC13CCECTypeUtils14GetMaskForTypeENS_15cec_device_typeE@Base 2.1.4
 _ZN3CEC13CCECTypeUtils8ToStringENS_10cec_opcodeE@Base 2.1.4
 (arch=hurd-i386 i386)_ZN3CEC13CCECTypeUtils8ToStringENS_19cec_logical_addressE@Base 4.0.4+dfsg1-3~
 _ZN3CEC13CCECTypeUtils8ToStringENS_21cec_user_control_codeE@Base 3.0.1
 _ZN3CEC15CAdapterFactory11GetInstanceEPKct@Base 2.1.4
 _ZN3CEC15CAdapterFactory12FindAdaptersEPNS_11cec_adapterEhPKc@Base 2.1.4
 _ZN3CEC15CAdapterFactory14DetectAdaptersEPNS_22cec_adapter_descriptorEhPKc@Base 2.1.4
 _ZN3CEC15CAdapterFactory19InitVideoStandaloneEv@Base 2.1.4
 _ZN3CEC15CAdapterFactoryD0Ev@Base 2.1.4
 _ZN3CEC15CAdapterFactoryD1Ev@Base 2.1.4
 _ZN3CEC15CAdapterFactoryD2Ev@Base 2.1.4
 _ZN3CEC15CCECAudioSystem10VolumeDownENS_19cec_logical_addressEb@Base 2.1.4
 _ZN3CEC15CCECAudioSystem11EnableAudioEPNS_13CCECBusDeviceE@Base 4.0
 _ZN3CEC15CCECAudioSystem14GetAudioStatusENS_19cec_logical_addressEb@Base 2.1.4
 _ZN3CEC15CCECAudioSystem14SetAudioStatusEh@Base 2.1.4
 _ZN3CEC15CCECAudioSystem18RequestAudioStatusENS_19cec_logical_addressEb@Base 2.1.4
 _ZN3CEC15CCECAudioSystem19TransmitAudioStatusENS_19cec_logical_addressEb@Base 2.1.4
 _ZN3CEC15CCECAudioSystem24SetSystemAudioModeStatusENS_23cec_system_audio_statusE@Base 2.1.4
 _ZN3CEC15CCECAudioSystem26TransmitSetSystemAudioModeENS_19cec_logical_addressEb@Base 2.1.4
 _ZN3CEC15CCECAudioSystem29TransmitSystemAudioModeStatusENS_19cec_logical_addressEb@Base 2.1.4
 _ZN3CEC15CCECAudioSystem8VolumeUpENS_19cec_logical_addressEb@Base 2.1.4
 _ZN3CEC15CCECAudioSystem9MuteAudioENS_19cec_logical_addressE@Base 2.1.4
 _ZN3CEC15CCECAudioSystemC1EPNS_13CCECProcessorENS_19cec_logical_addressEt@Base 2.1.4
 _ZN3CEC15CCECAudioSystemC2EPNS_13CCECProcessorENS_19cec_logical_addressEt@Base 2.1.4
 _ZN3CEC15CCECAudioSystemD0Ev@Base 2.1.4
 _ZN3CEC15CCECAudioSystemD1Ev@Base 2.1.4
 _ZN3CEC15CCECAudioSystemD2Ev@Base 2.1.4
 _ZN3CEC15CCECInputBufferD0Ev@Base 2.1.4
 _ZN3CEC15CCECInputBufferD1Ev@Base 2.1.4
 _ZN3CEC15CCECInputBufferD2Ev@Base 2.1.4
 _ZN3CEC16CWaitForResponse4WaitENS_10cec_opcodeEj@Base 2.1.4
 _ZN3CEC16CWaitForResponse5ClearEv@Base 2.1.4
 _ZN3CEC16CWaitForResponse8GetEventENS_10cec_opcodeE@Base 2.1.4
 _ZN3CEC16CWaitForResponse8ReceivedENS_10cec_opcodeE@Base 2.1.4
 _ZN3CEC16CWaitForResponseC1Ev@Base 2.1.4
 _ZN3CEC16CWaitForResponseC2Ev@Base 2.1.4
 _ZN3CEC16CWaitForResponseD1Ev@Base 2.1.4
 _ZN3CEC16CWaitForResponseD2Ev@Base 2.1.4
 _ZN3CEC17CANCommandHandler21HandleSetMenuLanguageERKNS_11cec_commandE@Base 2.2.0
 _ZN3CEC17CANCommandHandler28HandleVendorRemoteButtonDownERKNS_11cec_commandE@Base 2.1.4
 _ZN3CEC17CANCommandHandler31HandleDeviceVendorCommandWithIdERKNS_11cec_commandE@Base 2.1.4
 _ZN3CEC17CANCommandHandler7PowerOnENS_19cec_logical_addressES1_@Base 2.1.4
 (arch-bits=64)_ZN3CEC17CANCommandHandlerC1EPNS_13CCECBusDeviceEiial@Base 3.1.0
 (arch-bits=32)_ZN3CEC17CANCommandHandlerC1EPNS_13CCECBusDeviceEiiax@Base 3.1.0
 (arch-bits=64)_ZN3CEC17CANCommandHandlerC2EPNS_13CCECBusDeviceEiial@Base 3.1.0
 (arch-bits=32)_ZN3CEC17CANCommandHandlerC2EPNS_13CCECBusDeviceEiiax@Base 3.1.0
 _ZN3CEC17CANCommandHandlerD0Ev@Base 2.1.4
 _ZN3CEC17CANCommandHandlerD1Ev@Base 2.1.4
 _ZN3CEC17CANCommandHandlerD2Ev@Base 2.1.4
 _ZN3CEC17CAQCommandHandler7PowerOnENS_19cec_logical_addressES1_@Base 2.1.4
 (arch-bits=64)_ZN3CEC17CAQCommandHandlerC1EPNS_13CCECBusDeviceEiial@Base 3.1.0
 (arch-bits=32)_ZN3CEC17CAQCommandHandlerC1EPNS_13CCECBusDeviceEiiax@Base 3.1.0
 (arch-bits=64)_ZN3CEC17CAQCommandHandlerC2EPNS_13CCECBusDeviceEiial@Base 3.1.0
 (arch-bits=32)_ZN3CEC17CAQCommandHandlerC2EPNS_13CCECBusDeviceEiiax@Base 3.1.0
 _ZN3CEC17CAQCommandHandlerD0Ev@Base 2.1.4
 _ZN3CEC17CAQCommandHandlerD1Ev@Base 2.1.4
 _ZN3CEC17CAQCommandHandlerD2Ev@Base 2.1.4
 _ZN3CEC17CImageViewOnCheck7ProcessEv@Base 2.1.4
 _ZN3CEC17CImageViewOnCheckD0Ev@Base 2.1.4
 _ZN3CEC17CImageViewOnCheckD1Ev@Base 2.1.4
 _ZN3CEC17CImageViewOnCheckD2Ev@Base 2.1.4
 _ZN3CEC17CPHCommandHandler11InitHandlerEv@Base 2.1.4
 _ZN3CEC17CPHCommandHandler14ActivateSourceEb@Base 2.1.4
 (arch-bits=64)_ZN3CEC17CPHCommandHandler16TransmitVendorIDENS_19cec_logical_addressES1_mb@Base 3.1.0
 (arch-bits=32)_ZN3CEC17CPHCommandHandler16TransmitVendorIDENS_19cec_logical_addressES1_yb@Base 3.1.0
 _ZN3CEC17CPHCommandHandler20HandleDeviceVendorIdERKNS_11cec_commandE@Base 2.1.4
 _ZN3CEC17CPHCommandHandler24HandleUserControlPressedERKNS_11cec_commandE@Base 2.1.4
 _ZN3CEC17CPHCommandHandler24HandleUserControlReleaseERKNS_11cec_commandE@Base 2.1.4
 (arch-bits=64)_ZN3CEC17CPHCommandHandlerC1EPNS_13CCECBusDeviceEiial@Base 3.1.0
 (arch-bits=32)_ZN3CEC17CPHCommandHandlerC1EPNS_13CCECBusDeviceEiiax@Base 3.1.0
 (arch-bits=64)_ZN3CEC17CPHCommandHandlerC2EPNS_13CCECBusDeviceEiial@Base 3.1.0
 (arch-bits=32)_ZN3CEC17CPHCommandHandlerC2EPNS_13CCECBusDeviceEiiax@Base 3.1.0
 _ZN3CEC17CPHCommandHandlerD0Ev@Base 2.1.4
 _ZN3CEC17CPHCommandHandlerD1Ev@Base 2.1.4
 _ZN3CEC17CPHCommandHandlerD2Ev@Base 2.1.4
 _ZN3CEC17CRHCommandHandler31HandleDeviceVendorCommandWithIdERKNS_11cec_commandE@Base 2.1.4
 (arch-bits=64)_ZN3CEC17CRHCommandHandlerC1EPNS_13CCECBusDeviceEiial@Base 3.1.0
 (arch-bits=32)_ZN3CEC17CRHCommandHandlerC1EPNS_13CCECBusDeviceEiiax@Base 3.1.0
 (arch-bits=64)_ZN3CEC17CRHCommandHandlerC2EPNS_13CCECBusDeviceEiial@Base 3.1.0
 (arch-bits=32)_ZN3CEC17CRHCommandHandlerC2EPNS_13CCECBusDeviceEiiax@Base 3.1.0
 _ZN3CEC17CRHCommandHandlerD0Ev@Base 2.1.4
 _ZN3CEC17CRHCommandHandlerD1Ev@Base 2.1.4
 _ZN3CEC17CRHCommandHandlerD2Ev@Base 2.1.4
 _ZN3CEC17CRLCommandHandler11InitHandlerEv@Base 2.1.4
 _ZN3CEC17CRLCommandHandler31HandleDeviceVendorCommandWithIdERKNS_11cec_commandE@Base 2.1.4
 (arch-bits=64)_ZN3CEC17CRLCommandHandlerC1EPNS_13CCECBusDeviceEiial@Base 3.1.0
 (arch-bits=32)_ZN3CEC17CRLCommandHandlerC1EPNS_13CCECBusDeviceEiiax@Base 3.1.0
 (arch-bits=64)_ZN3CEC17CRLCommandHandlerC2EPNS_13CCECBusDeviceEiial@Base 3.1.0
 (arch-bits=32)_ZN3CEC17CRLCommandHandlerC2EPNS_13CCECBusDeviceEiiax@Base 3.1.0
 _ZN3CEC17CRLCommandHandlerD0Ev@Base 2.1.4
 _ZN3CEC17CRLCommandHandlerD1Ev@Base 2.1.4
 _ZN3CEC17CRLCommandHandlerD2Ev@Base 2.1.4
 _ZN3CEC17CSLCommandHandler11InitHandlerEv@Base 2.1.4
 _ZN3CEC17CSLCommandHandler12ResetSLStateEv@Base 2.1.4
 _ZN3CEC17CSLCommandHandler13HandleStandbyERKNS_11cec_commandE@Base 2.1.4
 _ZN3CEC17CSLCommandHandler13SLInitialisedEv@Base 2.1.4
 _ZN3CEC17CSLCommandHandler14ActivateSourceEb@Base 2.1.4
 _ZN3CEC17CSLCommandHandler16SetSLInitialisedEv@Base 2.1.4
 _ZN3CEC17CSLCommandHandler17TransmitMenuStateENS_19cec_logical_addressES1_NS_14cec_menu_stateEb@Base 2.1.4
 _ZN3CEC17CSLCommandHandler18HandleFeatureAbortERKNS_11cec_commandE@Base 2.1.4
 _ZN3CEC17CSLCommandHandler19HandleVendorCommandERKNS_11cec_commandE@Base 2.1.4
 _ZN3CEC17CSLCommandHandler20HandleGiveDeckStatusERKNS_11cec_commandE@Base 2.1.4
 _ZN3CEC17CSLCommandHandler25HandleRequestActiveSourceERKNS_11cec_commandE@Base 2.1.4
 _ZN3CEC17CSLCommandHandler25HandleVendorCommandSLInitERKNS_11cec_commandE@Base 2.1.4
 _ZN3CEC17CSLCommandHandler26HandleVendorCommandPowerOnERKNS_11cec_commandEb@Base 4.0.3+dfsg1-1~
 _ZN3CEC17CSLCommandHandler27HandleGiveDevicePowerStatusERKNS_11cec_commandE@Base 2.1.4
 _ZN3CEC17CSLCommandHandler28HandleVendorCommandSLConnectERKNS_11cec_commandE@Base 2.1.4
 _ZN3CEC17CSLCommandHandler30TransmitVendorCommandSLAckInitENS_19cec_logical_addressES1_@Base 2.1.4
 _ZN3CEC17CSLCommandHandler32HandleVendorCommandPowerOnStatusERKNS_11cec_commandE@Base 2.1.4
 _ZN3CEC17CSLCommandHandler34TransmitVendorCommandSetDeviceModeENS_19cec_logical_addressES1_NS_15cec_device_typeE@Base 2.1.4
 _ZN3CEC17CSLCommandHandler7PowerOnENS_19cec_logical_addressES1_@Base 2.1.4
 (arch-bits=64)_ZN3CEC17CSLCommandHandlerC1EPNS_13CCECBusDeviceEiial@Base 3.1.0
 (arch-bits=32)_ZN3CEC17CSLCommandHandlerC1EPNS_13CCECBusDeviceEiiax@Base 3.1.0
 (arch-bits=64)_ZN3CEC17CSLCommandHandlerC2EPNS_13CCECBusDeviceEiial@Base 3.1.0
 (arch-bits=32)_ZN3CEC17CSLCommandHandlerC2EPNS_13CCECBusDeviceEiiax@Base 3.1.0
 _ZN3CEC17CSLCommandHandlerD0Ev@Base 2.1.4
 _ZN3CEC17CSLCommandHandlerD1Ev@Base 2.1.4
 _ZN3CEC17CSLCommandHandlerD2Ev@Base 2.1.4
 _ZN3CEC17CVLCommandHandler11InitHandlerEv@Base 2.1.4
 _ZN3CEC17CVLCommandHandler13HandleStandbyERKNS_11cec_commandE@Base 2.1.4
 _ZN3CEC17CVLCommandHandler19HandleVendorCommandERKNS_11cec_commandE@Base 2.1.4
 _ZN3CEC17CVLCommandHandler19SourceSwitchAllowedEv@Base 2.1.4
 _ZN3CEC17CVLCommandHandler20PowerUpEventReceivedEv@Base 2.1.4
 _ZN3CEC17CVLCommandHandler23HandleReportPowerStatusERKNS_11cec_commandE@Base 2.1.4
 _ZN3CEC17CVLCommandHandler27VendorPreActivateSourceHookEv@Base 2.1.4
 _ZN3CEC17CVLCommandHandler28HandleSystemAudioModeRequestERKNS_11cec_commandE@Base 2.1.4
 _ZN3CEC17CVLCommandHandler29SendVendorCommandCapabilitiesENS_19cec_logical_addressES1_@Base 2.1.4
 _ZN3CEC17CVLCommandHandler31HandleDeviceVendorCommandWithIdERKNS_11cec_commandE@Base 2.1.4
 (arch-bits=64)_ZN3CEC17CVLCommandHandlerC1EPNS_13CCECBusDeviceEiial@Base 3.1.0
 (arch-bits=32)_ZN3CEC17CVLCommandHandlerC1EPNS_13CCECBusDeviceEiiax@Base 3.1.0
 (arch-bits=64)_ZN3CEC17CVLCommandHandlerC2EPNS_13CCECBusDeviceEiial@Base 3.1.0
 (arch-bits=32)_ZN3CEC17CVLCommandHandlerC2EPNS_13CCECBusDeviceEiiax@Base 3.1.0
 _ZN3CEC17CVLCommandHandlerD0Ev@Base 2.1.4
 _ZN3CEC17CVLCommandHandlerD1Ev@Base 2.1.4
 _ZN3CEC17CVLCommandHandlerD2Ev@Base 2.1.4
 _ZN3CEC18CAdapterPingThread7ProcessEv@Base 2.1.4
 _ZN3CEC18CAdapterPingThreadD0Ev@Base 2.1.4
 _ZN3CEC18CAdapterPingThreadD1Ev@Base 2.1.4
 _ZN3CEC18CAdapterPingThreadD2Ev@Base 2.1.4
 _ZN3CEC18CCECAdapterMessage11PushEscapedEh@Base 2.1.4
 _ZN3CEC18CCECAdapterMessage16PushReceivedByteEh@Base 2.1.4
 _ZN3CEC18CCECAdapterMessage18MessageCodeIsErrorENS_23cec_adapter_messagecodeE@Base 2.1.4
 _ZN3CEC18CCECAdapterMessage5ClearEv@Base 2.1.4
 _ZN3CEC18CCECAdapterMessage5ShiftEh@Base 2.1.4
 _ZN3CEC18CCECAdapterMessage6AppendERNS_14cec_datapacketE@Base 2.1.4
 _ZN3CEC18CCECAdapterMessage6AppendERS0_@Base 2.1.4
 _ZN3CEC18CCECAdapterMessage8PushBackEh@Base 2.1.4
 _ZN3CEC18CCECAdapterMessage8ToStringENS_23cec_adapter_messagecodeE@Base 2.1.4
 _ZN3CEC18CCECAdapterMessageC1ERKNS_11cec_commandEh@Base 2.1.4
 _ZN3CEC18CCECAdapterMessageC1Ev@Base 2.1.4
 _ZN3CEC18CCECAdapterMessageC2ERKNS_11cec_commandEh@Base 2.1.4
 _ZN3CEC18CCECAdapterMessageC2Ev@Base 2.1.4
 _ZN3CEC18CCECCommandHandler10HandlePollERKNS_11cec_commandE@Base 2.1.4
 _ZN3CEC18CCECCommandHandler11GetVendorIdEv@Base 2.1.4
 _ZN3CEC18CCECCommandHandler11InitHandlerEv@Base 2.1.4
 _ZN3CEC18CCECCommandHandler11SetVendorIdENS_13cec_vendor_idE@Base 2.1.4
 _ZN3CEC18CCECCommandHandler11SetVendorIdERKNS_11cec_commandE@Base 2.1.4
 _ZN3CEC18CCECCommandHandler12TransmitPollENS_19cec_logical_addressES1_b@Base 2.1.4
 _ZN3CEC18CCECCommandHandler13HandleCommandERKNS_11cec_commandE@Base 2.1.4
 _ZN3CEC18CCECCommandHandler13HandleStandbyERKNS_11cec_commandE@Base 2.1.4
 _ZN3CEC18CCECCommandHandler14ActivateSourceEb@Base 2.1.4
 _ZN3CEC18CCECCommandHandler15TransmitOSDNameENS_19cec_logical_addressES1_NSt7__cxx1112basic_stringIcSt11char_traitsIcESaIcEEEb@Base 3.0.1
 _ZN3CEC18CCECCommandHandler15TransmitStandbyENS_19cec_logical_addressES1_@Base 2.1.4
 _ZN3CEC18CCECCommandHandler16HandleSetOSDNameERKNS_11cec_commandE@Base 2.1.4
 _ZN3CEC18CCECCommandHandler16HandleTextViewOnERKNS_11cec_commandE@Base 2.1.4
 _ZN3CEC18CCECCommandHandler16TransmitKeypressENS_19cec_logical_addressES1_NS_21cec_user_control_codeEb@Base 2.1.4
 (arch-bits=64)_ZN3CEC18CCECCommandHandler16TransmitVendorIDENS_19cec_logical_addressES1_mb@Base 3.1.0
 (arch-bits=32)_ZN3CEC18CCECCommandHandler16TransmitVendorIDENS_19cec_logical_addressES1_yb@Base 3.1.0
 _ZN3CEC18CCECCommandHandler16UnhandledCommandERKNS_11cec_commandENS_16cec_abort_reasonE@Base 2.1.4
 _ZN3CEC18CCECCommandHandler17HandleDeckControlERKNS_11cec_commandE@Base 2.1.4
 _ZN3CEC18CCECCommandHandler17HandleGiveOSDNameERKNS_11cec_commandE@Base 2.1.4
 _ZN3CEC18CCECCommandHandler17HandleImageViewOnERKNS_11cec_commandE@Base 2.1.4
 _ZN3CEC18CCECCommandHandler17HandleMenuRequestERKNS_11cec_commandE@Base 2.1.4
 _ZN3CEC18CCECCommandHandler17TransmitMenuStateENS_19cec_logical_addressES1_NS_14cec_menu_stateEb@Base 2.1.4
 _ZN3CEC18CCECCommandHandler17TransmitOSDStringENS_19cec_logical_addressES1_NS_19cec_display_controlEPKcb@Base 2.1.4
 _ZN3CEC18CCECCommandHandler18HandleActiveSourceERKNS_11cec_commandE@Base 2.1.4
 _ZN3CEC18CCECCommandHandler18HandleFeatureAbortERKNS_11cec_commandE@Base 2.1.4
 _ZN3CEC18CCECCommandHandler18SetPhysicalAddressENS_19cec_logical_addressEt@Base 2.1.4
 _ZN3CEC18CCECCommandHandler18TransmitCECVersionENS_19cec_logical_addressES1_NS_11cec_versionEb@Base 2.1.4
 _ZN3CEC18CCECCommandHandler18TransmitDeckStatusENS_19cec_logical_addressES1_NS_13cec_deck_infoEb@Base 2.1.4
 _ZN3CEC18CCECCommandHandler18TransmitKeyReleaseENS_19cec_logical_addressES1_b@Base 2.1.4
 _ZN3CEC18CCECCommandHandler18TransmitPowerStateENS_19cec_logical_addressES1_NS_16cec_power_statusEb@Base 2.1.4
 _ZN3CEC18CCECCommandHandler19HandleGetCecVersionERKNS_11cec_commandE@Base 2.1.4
 _ZN3CEC18CCECCommandHandler19HandleRoutingChangeERKNS_11cec_commandE@Base 2.1.4
 _ZN3CEC18CCECCommandHandler19HandleSetStreamPathERKNS_11cec_commandE@Base 2.1.4
 _ZN3CEC18CCECCommandHandler19HandleVendorCommandERKNS_11cec_commandE@Base 2.1.4
 _ZN3CEC18CCECCommandHandler19SourceSwitchAllowedEv@Base 2.1.4
 _ZN3CEC18CCECCommandHandler19TransmitAudioStatusENS_19cec_logical_addressES1_hb@Base 2.1.4
 _ZN3CEC18CCECCommandHandler19TransmitImageViewOnENS_19cec_logical_addressES1_@Base 2.1.4
 _ZN3CEC18CCECCommandHandler20HandleDeviceVendorIdERKNS_11cec_commandE@Base 2.1.4
 _ZN3CEC18CCECCommandHandler20HandleGiveDeckStatusERKNS_11cec_commandE@Base 2.1.4
 _ZN3CEC18CCECCommandHandler20TransmitActiveSourceENS_19cec_logical_addressEtb@Base 2.1.4
 _ZN3CEC18CCECCommandHandler21HandleGiveAudioStatusERKNS_11cec_commandE@Base 2.1.4
 _ZN3CEC18CCECCommandHandler21HandleSetMenuLanguageERKNS_11cec_commandE@Base 2.1.4
 _ZN3CEC18CCECCommandHandler21TransmitSetStreamPathEtb@Base 2.1.4
 _ZN3CEC18CCECCommandHandler22HandleDeviceCecVersionERKNS_11cec_commandE@Base 2.1.4
 _ZN3CEC18CCECCommandHandler22HandleGiveMenuLanguageERKNS_11cec_commandE@Base 2.1.4
 (arch-bits=64)_ZN3CEC18CCECCommandHandler22ScheduleActivateSourceEm@Base 3.1.0
 (arch-bits=32)_ZN3CEC18CCECCommandHandler22ScheduleActivateSourceEy@Base 3.1.0
 _ZN3CEC18CCECCommandHandler22TransmitInactiveSourceENS_19cec_logical_addressEt@Base 2.1.4
 _ZN3CEC18CCECCommandHandler22TransmitRequestOSDNameENS_19cec_logical_addressES1_b@Base 2.1.4
 _ZN3CEC18CCECCommandHandler23HandleReportAudioStatusERKNS_11cec_commandE@Base 2.1.4
 _ZN3CEC18CCECCommandHandler23HandleReportPowerStatusERKNS_11cec_commandE@Base 2.1.4
 _ZN3CEC18CCECCommandHandler23TransmitPhysicalAddressENS_19cec_logical_addressEtNS_15cec_device_typeEb@Base 2.1.4
 _ZN3CEC18CCECCommandHandler23TransmitRequestVendorIdENS_19cec_logical_addressES1_b@Base 2.1.4
 _ZN3CEC18CCECCommandHandler23TransmitSetMenuLanguageENS_19cec_logical_addressEPKcb@Base 2.1.4
 _ZN3CEC18CCECCommandHandler24HandleGiveDeviceVendorIdERKNS_11cec_commandE@Base 2.1.4
 _ZN3CEC18CCECCommandHandler24HandleRoutingInformationERKNS_11cec_commandE@Base 2.1.4
 _ZN3CEC18CCECCommandHandler24HandleSetSystemAudioModeERKNS_11cec_commandE@Base 2.1.4
 _ZN3CEC18CCECCommandHandler24HandleUserControlPressedERKNS_11cec_commandE@Base 2.1.4
 _ZN3CEC18CCECCommandHandler24HandleUserControlReleaseERKNS_11cec_commandE@Base 2.1.4
 _ZN3CEC18CCECCommandHandler24RequestEmailFromCustomerERKNS_11cec_commandE@Base 2.1.4
 _ZN3CEC18CCECCommandHandler25HandleGivePhysicalAddressERKNS_11cec_commandE@Base 2.1.4
 _ZN3CEC18CCECCommandHandler25HandleRequestActiveSourceERKNS_11cec_commandE@Base 2.1.4
 _ZN3CEC18CCECCommandHandler25TransmitRequestCecVersionENS_19cec_logical_addressES1_b@Base 2.1.4
 _ZN3CEC18CCECCommandHandler26HandleVendorRemoteButtonUpERKNS_11cec_commandE@Base 2.1.4
 _ZN3CEC18CCECCommandHandler26TransmitRequestAudioStatusENS_19cec_logical_addressES1_b@Base 2.1.4
 _ZN3CEC18CCECCommandHandler26TransmitRequestPowerStatusENS_19cec_logical_addressES1_bb@Base 2.1.4
 _ZN3CEC18CCECCommandHandler26TransmitSetSystemAudioModeENS_19cec_logical_addressES1_NS_23cec_system_audio_statusEb@Base 2.1.4
 _ZN3CEC18CCECCommandHandler27HandleGiveDevicePowerStatusERKNS_11cec_commandE@Base 2.1.4
 _ZN3CEC18CCECCommandHandler27HandleReportPhysicalAddressERKNS_11cec_commandE@Base 2.1.4
 _ZN3CEC18CCECCommandHandler27HandleSystemAudioModeStatusERKNS_11cec_commandE@Base 2.1.4
 _ZN3CEC18CCECCommandHandler27TransmitRequestActiveSourceENS_19cec_logical_addressEb@Base 2.1.4
 _ZN3CEC18CCECCommandHandler27TransmitRequestMenuLanguageENS_19cec_logical_addressES1_b@Base 2.1.4
 _ZN3CEC18CCECCommandHandler27VendorPreActivateSourceHookEv@Base 2.1.4
 _ZN3CEC18CCECCommandHandler28HandleSystemAudioModeRequestERKNS_11cec_commandE@Base 2.1.4
 _ZN3CEC18CCECCommandHandler28HandleVendorRemoteButtonDownERKNS_11cec_commandE@Base 2.1.4
 _ZN3CEC18CCECCommandHandler29TransmitSystemAudioModeStatusENS_19cec_logical_addressES1_NS_23cec_system_audio_statusEb@Base 2.1.4
 _ZN3CEC18CCECCommandHandler30TransmitRequestPhysicalAddressENS_19cec_logical_addressES1_b@Base 2.1.4
 _ZN3CEC18CCECCommandHandler30TransmitSystemAudioModeRequestENS_19cec_logical_addressEt@Base 4.0
 _ZN3CEC18CCECCommandHandler31HandleDeviceVendorCommandWithIdERKNS_11cec_commandE@Base 2.1.4
 _ZN3CEC18CCECCommandHandler31HandleGiveSystemAudioModeStatusERKNS_11cec_commandE@Base 2.1.4
 _ZN3CEC18CCECCommandHandler7PowerOnENS_19cec_logical_addressES1_@Base 2.1.4
 _ZN3CEC18CCECCommandHandler8TransmitERNS_11cec_commandEbb@Base 2.1.4
 (arch-bits=64)_ZN3CEC18CCECCommandHandlerC1EPNS_13CCECBusDeviceEiial@Base 3.1.0
 (arch-bits=32)_ZN3CEC18CCECCommandHandlerC1EPNS_13CCECBusDeviceEiiax@Base 3.1.0
 (arch-bits=64)_ZN3CEC18CCECCommandHandlerC2EPNS_13CCECBusDeviceEiial@Base 3.1.0
 (arch-bits=32)_ZN3CEC18CCECCommandHandlerC2EPNS_13CCECBusDeviceEiiax@Base 3.1.0
 _ZN3CEC18CCECCommandHandlerD0Ev@Base 2.1.4
 _ZN3CEC18CCECCommandHandlerD1Ev@Base 2.1.4
 _ZN3CEC18CCECCommandHandlerD2Ev@Base 2.1.4
 _ZN3CEC18CCECPlaybackDevice13GetDeckStatusENS_19cec_logical_addressE@Base 2.1.4
 _ZN3CEC18CCECPlaybackDevice13SetDeckStatusENS_13cec_deck_infoE@Base 2.1.4
 _ZN3CEC18CCECPlaybackDevice17ResetDeviceStatusEv@Base 2.1.4
 _ZN3CEC18CCECPlaybackDevice18GetDeckControlModeENS_19cec_logical_addressE@Base 2.1.4
 _ZN3CEC18CCECPlaybackDevice18SetDeckControlModeENS_21cec_deck_control_modeE@Base 2.1.4
 _ZN3CEC18CCECPlaybackDevice18TransmitDeckStatusENS_19cec_logical_addressEb@Base 2.1.4
 _ZN3CEC18CCECPlaybackDeviceC1EPNS_13CCECProcessorENS_19cec_logical_addressEt@Base 2.1.4
 _ZN3CEC18CCECPlaybackDeviceC2EPNS_13CCECProcessorENS_19cec_logical_addressEt@Base 2.1.4
 _ZN3CEC18CCECPlaybackDeviceD0Ev@Base 2.1.4
 _ZN3CEC18CCECPlaybackDeviceD1Ev@Base 2.1.4
 _ZN3CEC18CCECPlaybackDeviceD2Ev@Base 2.1.4
 _ZN3CEC19CAQPowerStatusCheck7ProcessEv@Base 2.1.4
 _ZN3CEC19CAQPowerStatusCheckD0Ev@Base 2.1.4
 _ZN3CEC19CAQPowerStatusCheckD1Ev@Base 2.1.4
 _ZN3CEC19CAQPowerStatusCheckD2Ev@Base 2.1.4
 _ZN3CEC19CCECRecordingDevice17ResetDeviceStatusEv@Base 2.1.4
 _ZN3CEC19CCECRecordingDeviceC1EPNS_13CCECProcessorENS_19cec_logical_addressEt@Base 2.1.4
 _ZN3CEC19CCECRecordingDeviceC2EPNS_13CCECProcessorENS_19cec_logical_addressEt@Base 2.1.4
 _ZN3CEC19CCECRecordingDeviceD0Ev@Base 2.1.4
 _ZN3CEC19CCECRecordingDeviceD1Ev@Base 2.1.4
 _ZN3CEC19CCECRecordingDeviceD2Ev@Base 2.1.4
 _ZN3CEC20libcec_configuration5ClearEv@Base 2.1.4
 _ZN3CEC21CCECStandbyProtection7ProcessEv@Base 2.1.4
 _ZN3CEC21CCECStandbyProtectionC1EPNS_13CCECProcessorE@Base 2.1.4
 _ZN3CEC21CCECStandbyProtectionC2EPNS_13CCECProcessorE@Base 2.1.4
 _ZN3CEC21CCECStandbyProtectionD0Ev@Base 2.1.4
 _ZN3CEC21CCECStandbyProtectionD1Ev@Base 2.1.4
 _ZN3CEC21CCECStandbyProtectionD2Ev@Base 2.1.4
 _ZN3CEC22CAOCECAdapterDetection11FindAdapterEv@Base 4.0.2+dfsg1-3~
 _ZN3CEC22CUSBCECAdapterCommands10SetAckMaskEt@Base 2.1.4
 _ZN3CEC22CUSBCECAdapterCommands11PingAdapterEv@Base 2.1.4
 _ZN3CEC22CUSBCECAdapterCommands11WriteEEPROMEv@Base 2.1.4
 _ZN3CEC22CUSBCECAdapterCommands14RequestSettingENS_23cec_adapter_messagecodeE@Base 2.1.4
 _ZN3CEC22CUSBCECAdapterCommands14SetLineTimeoutEh@Base 2.1.4
 _ZN3CEC22CUSBCECAdapterCommands15RequestSettingsEv@Base 2.1.4
 _ZN3CEC22CUSBCECAdapterCommands15SetActiveSourceEbb@Base 2.1.4
 _ZN3CEC22CUSBCECAdapterCommands15StartBootloaderEv@Base 2.1.4
 _ZN3CEC22CUSBCECAdapterCommands16GetConfigurationERNS_20libcec_configurationE@Base 2.1.4
 _ZN3CEC22CUSBCECAdapterCommands16RequestBuildDateEv@Base 2.1.4
 _ZN3CEC22CUSBCECAdapterCommands17SetControlledModeEb@Base 2.1.4
 _ZN3CEC22CUSBCECAdapterCommands17SetSettingOSDNameEPKc@Base 2.1.4
 _ZN3CEC22CUSBCECAdapterCommands18RequestAdapterTypeEv@Base 2.1.4
 _ZN3CEC22CUSBCECAdapterCommands20PersistConfigurationERKNS_20libcec_configurationE@Base 2.1.4
 _ZN3CEC22CUSBCECAdapterCommands20SetSettingCECVersionENS_11cec_versionE@Base 2.1.4
 _ZN3CEC22CUSBCECAdapterCommands20SetSettingDeviceTypeENS_15cec_device_typeE@Base 2.1.4
 _ZN3CEC22CUSBCECAdapterCommands21RequestSettingOSDNameEv@Base 2.1.4
 _ZN3CEC22CUSBCECAdapterCommands21SetSettingAutoEnabledEb@Base 2.1.4
 _ZN3CEC22CUSBCECAdapterCommands22RequestFirmwareVersionEv@Base 2.1.4
 _ZN3CEC22CUSBCECAdapterCommands24RequestSettingCECVersionEv@Base 2.1.4
 _ZN3CEC22CUSBCECAdapterCommands24RequestSettingDeviceTypeEv@Base 2.1.4
 _ZN3CEC22CUSBCECAdapterCommands25RequestSettingAutoEnabledEv@Base 2.1.4
 _ZN3CEC22CUSBCECAdapterCommands25SetSettingPhysicalAddressEt@Base 2.1.4
 _ZN3CEC22CUSBCECAdapterCommands28SetSettingLogicalAddressMaskEt@Base 2.1.4
 _ZN3CEC22CUSBCECAdapterCommands29RequestSettingPhysicalAddressEv@Base 2.1.4
 _ZN3CEC22CUSBCECAdapterCommands31SetSettingDefaultLogicalAddressENS_19cec_logical_addressE@Base 2.1.4
 _ZN3CEC22CUSBCECAdapterCommands32RequestSettingLogicalAddressMaskEv@Base 2.1.4
 _ZN3CEC22CUSBCECAdapterCommands35RequestSettingDefaultLogicalAddressEv@Base 2.1.4
 _ZN3CEC22CUSBCECAdapterCommandsC1EPNS_27CUSBCECAdapterCommunicationE@Base 2.1.4
 _ZN3CEC22CUSBCECAdapterCommandsC2EPNS_27CUSBCECAdapterCommunicationE@Base 2.1.4
 _ZN3CEC23CCECAdapterMessageQueue15MessageReceivedERKNS_18CCECAdapterMessageE@Base 2.1.4
 _ZN3CEC23CCECAdapterMessageQueue21CheckTimedOutMessagesEv@Base 2.1.4
 _ZN3CEC23CCECAdapterMessageQueue24ProvidesExtendedResponseEv@Base 2.1.4
 _ZN3CEC23CCECAdapterMessageQueue5ClearEv@Base 2.1.4
 _ZN3CEC23CCECAdapterMessageQueue5WriteEPNS_18CCECAdapterMessageE@Base 2.1.4
 (arch-bits=32)_ZN3CEC23CCECAdapterMessageQueue7AddDataEPhj@Base 3.1.0
 (arch-bits=64)_ZN3CEC23CCECAdapterMessageQueue7AddDataEPhm@Base 3.1.0
 _ZN3CEC23CCECAdapterMessageQueue7ProcessEv@Base 2.1.4
 _ZN3CEC23CCECAdapterMessageQueueC1EPNS_27CUSBCECAdapterCommunicationE@Base 2.1.4
 _ZN3CEC23CCECAdapterMessageQueueC2EPNS_27CUSBCECAdapterCommunicationE@Base 2.1.4
 _ZN3CEC23CCECAdapterMessageQueueD0Ev@Base 2.1.4
 _ZN3CEC23CCECAdapterMessageQueueD1Ev@Base 2.1.4
 _ZN3CEC23CCECAdapterMessageQueueD2Ev@Base 2.1.4
 _ZN3CEC23CUSBCECAdapterDetection12FindAdaptersEPNS_22cec_adapter_descriptorEhPKc@Base 2.1.4
 _ZN3CEC23CUSBCECAdapterDetection13CanAutodetectEv@Base 2.1.4
 _ZN3CEC23CUSBCECAdapterDetection16FindAdaptersUdevEPNS_22cec_adapter_descriptorEhPKc@Base 3.1.0
 _ZN3CEC23CUSBCECAdapterDetection17FindAdaptersAppleEPNS_22cec_adapter_descriptorEhPKc@Base 3.1.0
 _ZN3CEC23CUSBCECAdapterDetection19FindAdaptersFreeBSDEPNS_22cec_adapter_descriptorEhPKc@Base 3.1.0
 _ZN3CEC23CUSBCECAdapterDetection19FindAdaptersWindowsEPNS_22cec_adapter_descriptorEhPKc@Base 3.1.0
 _ZN3CEC25CAdapterEepromWriteThread4StopEv@Base 2.1.4
 _ZN3CEC25CAdapterEepromWriteThread5WriteEv@Base 2.1.4
 _ZN3CEC25CAdapterEepromWriteThread7ProcessEv@Base 2.1.4
 _ZN3CEC25CAdapterEepromWriteThreadD0Ev@Base 2.1.4
 _ZN3CEC25CAdapterEepromWriteThreadD1Ev@Base 2.1.4
 _ZN3CEC25CAdapterEepromWriteThreadD2Ev@Base 2.1.4
 _ZN3CEC26CAOCECAdapterCommunication11GetPortNameB5cxx11Ev@Base 4.0.2+dfsg1-3~
 _ZN3CEC26CAOCECAdapterCommunication11GetVendorIdEv@Base 4.0.2+dfsg1-3~
 _ZN3CEC26CAOCECAdapterCommunication11PingAdapterEv@Base 4.0.2+dfsg1-3~
 _ZN3CEC26CAOCECAdapterCommunication11SetAutoModeEb@Base 4.0.3+dfsg1-1~
 _ZN3CEC26CAOCECAdapterCommunication14GetAdapterTypeEv@Base 4.0.2+dfsg1-3~
 _ZN3CEC26CAOCECAdapterCommunication14SetLineTimeoutEh@Base 4.0.2+dfsg1-3~
 _ZN3CEC26CAOCECAdapterCommunication15SetActiveSourceEbb@Base 4.0.2+dfsg1-3~
 _ZN3CEC26CAOCECAdapterCommunication15StartBootloaderEv@Base 4.0.2+dfsg1-3~
 _ZN3CEC26CAOCECAdapterCommunication16GetConfigurationERNS_20libcec_configurationE@Base 4.0.2+dfsg1-3~
 _ZN3CEC26CAOCECAdapterCommunication17SetControlledModeEb@Base 4.0.2+dfsg1-3~
 _ZN3CEC26CAOCECAdapterCommunication18GetFirmwareVersionEv@Base 4.0.2+dfsg1-3~
 _ZN3CEC26CAOCECAdapterCommunication18GetPhysicalAddressEv@Base 4.0.2+dfsg1-3~
 _ZN3CEC26CAOCECAdapterCommunication19SetLogicalAddressesERKNS_21cec_logical_addressesE@Base 4.0.2+dfsg1-3~
 _ZN3CEC26CAOCECAdapterCommunication20GetFirmwareBuildDateEv@Base 4.0.2+dfsg1-3~
 _ZN3CEC26CAOCECAdapterCommunication20PersistConfigurationERKNS_20libcec_configurationE@Base 4.0.2+dfsg1-3~
 _ZN3CEC26CAOCECAdapterCommunication23IsRunningLatestFirmwareEv@Base 4.0.2+dfsg1-3~
 _ZN3CEC26CAOCECAdapterCommunication24HandleLogicalAddressLostENS_19cec_logical_addressE@Base 4.0.2+dfsg1-3~
 _ZN3CEC26CAOCECAdapterCommunication28SupportsSourceLogicalAddressENS_19cec_logical_addressE@Base 4.0.2+dfsg1-3~
 _ZN3CEC26CAOCECAdapterCommunication4OpenEjbb@Base 4.0.2+dfsg1-3~
 _ZN3CEC26CAOCECAdapterCommunication5CloseEv@Base 4.0.2+dfsg1-3~
 _ZN3CEC26CAOCECAdapterCommunication5WriteERKNS_11cec_commandERbhb@Base 4.0.2+dfsg1-3~
 _ZN3CEC26CAOCECAdapterCommunication6IsOpenEv@Base 4.0.2+dfsg1-3~
 _ZN3CEC26CAOCECAdapterCommunication7ProcessEv@Base 4.0.2+dfsg1-3~
 _ZN3CEC26CAOCECAdapterCommunicationC1EPNS_29IAdapterCommunicationCallbackE@Base 4.0.2+dfsg1-3~
 _ZN3CEC26CAOCECAdapterCommunicationC2EPNS_29IAdapterCommunicationCallbackE@Base 4.0.2+dfsg1-3~
 _ZN3CEC26CAOCECAdapterCommunicationD0Ev@Base 4.0.2+dfsg1-3~
 _ZN3CEC26CAOCECAdapterCommunicationD1Ev@Base 4.0.2+dfsg1-3~
 _ZN3CEC26CAOCECAdapterCommunicationD2Ev@Base 4.0.2+dfsg1-3~
 _ZN3CEC26CCECAllocateLogicalAddress7ProcessEv@Base 2.1.4
 _ZN3CEC26CCECAllocateLogicalAddressC1EPNS_13CCECProcessorESt10shared_ptrINS_10CCECClientEE@Base 3.0.1
 _ZN3CEC26CCECAllocateLogicalAddressC2EPNS_13CCECProcessorESt10shared_ptrINS_10CCECClientEE@Base 3.0.1
 _ZN3CEC26CCECAllocateLogicalAddressD0Ev@Base 2.1.4
 _ZN3CEC26CCECAllocateLogicalAddressD1Ev@Base 2.1.4
 _ZN3CEC26CCECAllocateLogicalAddressD2Ev@Base 2.1.4
 _ZN3CEC26CExynosCECAdapterDetection11FindAdapterEv@Base 4.0.2+dfsg1-3~
 _ZN3CEC27CUSBCECAdapterCommunication10HandlePollERKNS_18CCECAdapterMessageE@Base 2.1.4
 _ZN3CEC27CUSBCECAdapterCommunication11GetPortNameB5cxx11Ev@Base 3.0.1
 _ZN3CEC27CUSBCECAdapterCommunication11GetVendorIdEv@Base 2.1.4
 _ZN3CEC27CUSBCECAdapterCommunication11PingAdapterEv@Base 2.1.4
 _ZN3CEC27CUSBCECAdapterCommunication11SendCommandENS_23cec_adapter_messagecodeERNS_18CCECAdapterMessageEb@Base 2.1.4
 _ZN3CEC27CUSBCECAdapterCommunication11SetAutoModeEb@Base 4.0.3+dfsg1-1~
 _ZN3CEC27CUSBCECAdapterCommunication12CheckAdapterEj@Base 2.1.4
 _ZN3CEC27CUSBCECAdapterCommunication13MarkAsWaitingENS_19cec_logical_addressE@Base 2.1.4
 _ZN3CEC27CUSBCECAdapterCommunication13WriteToDeviceEPNS_18CCECAdapterMessageE@Base 2.1.4
 _ZN3CEC27CUSBCECAdapterCommunication14GetAdapterTypeEv@Base 2.1.4
 (arch-bits=32)_ZN3CEC27CUSBCECAdapterCommunication14ReadFromDeviceEjj@Base 3.1.0
 (arch-bits=64)_ZN3CEC27CUSBCECAdapterCommunication14ReadFromDeviceEjm@Base 3.1.0
 _ZN3CEC27CUSBCECAdapterCommunication14SetInitialisedEb@Base 2.1.4
 _ZN3CEC27CUSBCECAdapterCommunication14SetLineTimeoutEh@Base 2.1.4
 _ZN3CEC27CUSBCECAdapterCommunication15ClearInputBytesEj@Base 2.1.4
 _ZN3CEC27CUSBCECAdapterCommunication15SetActiveSourceEbb@Base 2.1.4
 _ZN3CEC27CUSBCECAdapterCommunication15StartBootloaderEv@Base 2.1.4
 _ZN3CEC27CUSBCECAdapterCommunication16GetConfigurationERNS_20libcec_configurationE@Base 2.1.4
 _ZN3CEC27CUSBCECAdapterCommunication17ResetMessageQueueEv@Base 2.1.4
 _ZN3CEC27CUSBCECAdapterCommunication17SetControlledModeEb@Base 2.1.4
 _ZN3CEC27CUSBCECAdapterCommunication18GetFirmwareVersionEv@Base 2.1.4
 _ZN3CEC27CUSBCECAdapterCommunication18GetPhysicalAddressEv@Base 2.1.4
 _ZN3CEC27CUSBCECAdapterCommunication19SetLogicalAddressesERKNS_21cec_logical_addressesE@Base 2.1.4
 _ZN3CEC27CUSBCECAdapterCommunication20GetFirmwareBuildDateEv@Base 2.1.4
 _ZN3CEC27CUSBCECAdapterCommunication20PersistConfigurationERKNS_20libcec_configurationE@Base 2.1.4
 _ZN3CEC27CUSBCECAdapterCommunication23IsRunningLatestFirmwareEv@Base 2.1.4
 _ZN3CEC27CUSBCECAdapterCommunication24ProvidesExtendedResponseEv@Base 2.1.4
 _ZN3CEC27CUSBCECAdapterCommunication28SupportsSourceLogicalAddressENS_19cec_logical_addressE@Base 2.1.4
 _ZN3CEC27CUSBCECAdapterCommunication4OpenEjbb@Base 2.1.4
 _ZN3CEC27CUSBCECAdapterCommunication5CloseEv@Base 2.1.4
 _ZN3CEC27CUSBCECAdapterCommunication5WriteERKNS_11cec_commandERbhb@Base 2.1.4
 _ZN3CEC27CUSBCECAdapterCommunication6IsOpenEv@Base 2.1.4
 _ZN3CEC27CUSBCECAdapterCommunication7ProcessEv@Base 2.1.4
 _ZN3CEC27CUSBCECAdapterCommunicationC1EPNS_29IAdapterCommunicationCallbackEPKct@Base 2.1.4
 _ZN3CEC27CUSBCECAdapterCommunicationC2EPNS_29IAdapterCommunicationCallbackEPKct@Base 2.1.4
 _ZN3CEC27CUSBCECAdapterCommunicationD0Ev@Base 2.1.4
 _ZN3CEC27CUSBCECAdapterCommunicationD1Ev@Base 2.1.4
 _ZN3CEC27CUSBCECAdapterCommunicationD2Ev@Base 2.1.4
 _ZN3CEC28CCECAdapterMessageQueueEntry10IsResponseERKNS_18CCECAdapterMessageE@Base 2.1.4
 _ZN3CEC28CCECAdapterMessageQueueEntry11MessageCodeEv@Base 2.1.4
 _ZN3CEC28CCECAdapterMessageQueueEntry13IsResponseOldERKNS_18CCECAdapterMessageE@Base 2.1.4
 _ZN3CEC28CCECAdapterMessageQueueEntry15MessageReceivedERKNS_18CCECAdapterMessageE@Base 2.1.4
 _ZN3CEC28CCECAdapterMessageQueueEntry23MessageReceivedResponseERKNS_18CCECAdapterMessageE@Base 2.1.4
 _ZN3CEC28CCECAdapterMessageQueueEntry24ProvidesExtendedResponseEv@Base 2.1.4
 _ZN3CEC28CCECAdapterMessageQueueEntry30MessageReceivedCommandAcceptedERKNS_18CCECAdapterMessageE@Base 2.1.4
 _ZN3CEC28CCECAdapterMessageQueueEntry32MessageReceivedTransmitSucceededERKNS_18CCECAdapterMessageE@Base 2.1.4
 _ZN3CEC28CCECAdapterMessageQueueEntry4WaitEj@Base 2.1.4
 _ZN3CEC28CCECAdapterMessageQueueEntry6SignalEv@Base 2.1.4
 _ZN3CEC28CCECAdapterMessageQueueEntry9BroadcastEv@Base 2.1.4
 _ZN3CEC28CCECAdapterMessageQueueEntry9IsWaitingEv@Base 2.1.4
 _ZN3CEC28CCECAdapterMessageQueueEntryC1EPNS_23CCECAdapterMessageQueueEPNS_18CCECAdapterMessageE@Base 2.1.4
 _ZN3CEC28CCECAdapterMessageQueueEntryC2EPNS_23CCECAdapterMessageQueueEPNS_18CCECAdapterMessageE@Base 2.1.4
 _ZN3CEC28CCECAdapterMessageQueueEntryD0Ev@Base 2.1.4
 _ZN3CEC28CCECAdapterMessageQueueEntryD1Ev@Base 2.1.4
 _ZN3CEC28CCECAdapterMessageQueueEntryD2Ev@Base 2.1.4
 _ZN3CEC30CExynosCECAdapterCommunication11GetPortNameB5cxx11Ev@Base 4.0.2+dfsg1-3~
 _ZN3CEC30CExynosCECAdapterCommunication11GetVendorIdEv@Base 4.0.2+dfsg1-3~
 _ZN3CEC30CExynosCECAdapterCommunication11PingAdapterEv@Base 4.0.2+dfsg1-3~
 _ZN3CEC30CExynosCECAdapterCommunication11SetAutoModeEb@Base 4.0.3+dfsg1-1~
 _ZN3CEC30CExynosCECAdapterCommunication14GetAdapterTypeEv@Base 4.0.2+dfsg1-3~
 _ZN3CEC30CExynosCECAdapterCommunication14SetLineTimeoutEh@Base 4.0.2+dfsg1-3~
 _ZN3CEC30CExynosCECAdapterCommunication15SetActiveSourceEbb@Base 4.0.2+dfsg1-3~
 _ZN3CEC30CExynosCECAdapterCommunication15StartBootloaderEv@Base 4.0.2+dfsg1-3~
 _ZN3CEC30CExynosCECAdapterCommunication16GetConfigurationERNS_20libcec_configurationE@Base 4.0.2+dfsg1-3~
 _ZN3CEC30CExynosCECAdapterCommunication17SetControlledModeEb@Base 4.0.2+dfsg1-3~
 _ZN3CEC30CExynosCECAdapterCommunication18GetFirmwareVersionEv@Base 4.0.2+dfsg1-3~
 _ZN3CEC30CExynosCECAdapterCommunication18GetPhysicalAddressEv@Base 4.0.2+dfsg1-3~
 _ZN3CEC30CExynosCECAdapterCommunication19SetLogicalAddressesERKNS_21cec_logical_addressesE@Base 4.0.2+dfsg1-3~
 _ZN3CEC30CExynosCECAdapterCommunication20GetFirmwareBuildDateEv@Base 4.0.2+dfsg1-3~
 _ZN3CEC30CExynosCECAdapterCommunication20PersistConfigurationERKNS_20libcec_configurationE@Base 4.0.2+dfsg1-3~
 _ZN3CEC30CExynosCECAdapterCommunication23IsRunningLatestFirmwareEv@Base 4.0.2+dfsg1-3~
 _ZN3CEC30CExynosCECAdapterCommunication24HandleLogicalAddressLostENS_19cec_logical_addressE@Base 4.0.2+dfsg1-3~
 _ZN3CEC30CExynosCECAdapterCommunication28SupportsSourceLogicalAddressENS_19cec_logical_addressE@Base 4.0.2+dfsg1-3~
 _ZN3CEC30CExynosCECAdapterCommunication4OpenEjbb@Base 4.0.2+dfsg1-3~
 _ZN3CEC30CExynosCECAdapterCommunication5CloseEv@Base 4.0.2+dfsg1-3~
 _ZN3CEC30CExynosCECAdapterCommunication5WriteERKNS_11cec_commandERbhb@Base 4.0.2+dfsg1-3~
 _ZN3CEC30CExynosCECAdapterCommunication6IsOpenEv@Base 4.0.2+dfsg1-3~
 _ZN3CEC30CExynosCECAdapterCommunication7ProcessEv@Base 4.0.2+dfsg1-3~
 _ZN3CEC30CExynosCECAdapterCommunicationC1EPNS_29IAdapterCommunicationCallbackE@Base 4.0.2+dfsg1-3~
 _ZN3CEC30CExynosCECAdapterCommunicationC2EPNS_29IAdapterCommunicationCallbackE@Base 4.0.2+dfsg1-3~
 _ZN3CEC30CExynosCECAdapterCommunicationD0Ev@Base 4.0.2+dfsg1-3~
 _ZN3CEC30CExynosCECAdapterCommunicationD1Ev@Base 4.0.2+dfsg1-3~
 _ZN3CEC30CExynosCECAdapterCommunicationD2Ev@Base 4.0.2+dfsg1-3~
 _ZN3CEC6CCECTV17ResetDeviceStatusEv@Base 2.1.4
 _ZN3CEC6CCECTVC1EPNS_13CCECProcessorENS_19cec_logical_addressE@Base 2.1.4
 _ZN3CEC6CCECTVC2EPNS_13CCECProcessorENS_19cec_logical_addressE@Base 2.1.4
 _ZN3CEC6CCECTVD0Ev@Base 2.1.4
 _ZN3CEC6CCECTVD1Ev@Base 2.1.4
 _ZN3CEC6CCECTVD2Ev@Base 2.1.4
 _ZN3CEC7CLibCEC10AddCommandERKNS_11cec_commandE@Base 2.1.4
 _ZN3CEC7CLibCEC10GetLibInfoEv@Base 2.1.4
 _ZN3CEC7CLibCEC10PollDeviceENS_19cec_logical_addressE@Base 2.1.4
 _ZN3CEC7CLibCEC10VolumeDownEb@Base 2.1.4
 _ZN3CEC7CLibCEC11AudioEnableEb@Base 4.0
 _ZN3CEC7CLibCEC11AudioStatusEv@Base 2.1.4
 _ZN3CEC7CLibCEC11AudioUnmuteEv@Base 2.1.4
 _ZN3CEC7CLibCEC11PingAdapterEv@Base 2.1.4
 _ZN3CEC7CLibCEC11SetDeckInfoENS_13cec_deck_infoEb@Base 2.1.4
 _ZN3CEC7CLibCEC11SetHDMIPortENS_19cec_logical_addressEh@Base 2.1.4
 _ZN3CEC7CLibCEC12FindAdaptersEPNS_11cec_adapterEhPKc@Base 2.1.4
 (arch-bits=32)_ZN3CEC7CLibCEC12PrintVersionEjPcj@Base 3.1.0
 (arch-bits=64)_ZN3CEC7CLibCEC12PrintVersionEjPcm@Base 3.1.0
 _ZN3CEC7CLibCEC12SendKeypressENS_19cec_logical_addressENS_21cec_user_control_codeEb@Base 2.1.4
 _ZN3CEC7CLibCEC12SetMenuStateENS_14cec_menu_stateEb@Base 2.1.4
 _ZN3CEC7CLibCEC12SetOSDStringENS_19cec_logical_addressENS_19cec_display_controlEPKc@Base 2.1.4
 _ZN3CEC7CLibCEC13SetStreamPathENS_19cec_logical_addressE@Base 2.1.4
 _ZN3CEC7CLibCEC13SetStreamPathEt@Base 2.1.4
 _ZN3CEC7CLibCEC14DetectAdaptersEPNS_22cec_adapter_descriptorEhPKcb@Base 2.1.4
 _ZN3CEC7CLibCEC14GetMaskForTypeENS_15cec_device_typeE@Base 2.1.4
 _ZN3CEC7CLibCEC14GetMaskForTypeENS_19cec_logical_addressE@Base 2.1.4
 _ZN3CEC7CLibCEC14IsActiveDeviceENS_19cec_logical_addressE@Base 2.1.4
 _ZN3CEC7CLibCEC14IsActiveSourceENS_19cec_logical_addressE@Base 2.1.4
 _ZN3CEC7CLibCEC14PowerOnDevicesENS_19cec_logical_addressE@Base 2.1.4
 _ZN3CEC7CLibCEC14RegisterClientERNS_20libcec_configurationE@Base 2.1.4
 _ZN3CEC7CLibCEC14SendKeyReleaseENS_19cec_logical_addressEb@Base 2.1.4
 _ZN3CEC7CLibCEC14StandbyDevicesENS_19cec_logical_addressE@Base 2.1.4
 _ZN3CEC7CLibCEC15AudioToggleMuteEv@Base 2.1.4
 _ZN3CEC7CLibCEC15EnableCallbacksEPvPNS_13ICECCallbacksE@Base 2.1.4
 _ZN3CEC7CLibCEC15GetActiveSourceEv@Base 2.1.4
 _ZN3CEC7CLibCEC15SetActiveSourceENS_15cec_device_typeE@Base 2.1.4
 _ZN3CEC7CLibCEC15SetInactiveViewEv@Base 2.1.4
 _ZN3CEC7CLibCEC15StartBootloaderEv@Base 2.1.4
 _ZN3CEC7CLibCEC15VersionToStringB5cxx11Ej@Base 3.0.1
 _ZN3CEC7CLibCEC16GetActiveDevicesEv@Base 2.1.4
 _ZN3CEC7CLibCEC16GetDeviceOSDNameB5cxx11ENS_19cec_logical_addressE@Base 4.0
 _ZN3CEC7CLibCEC16SetConfigurationEPKNS_20libcec_configurationE@Base 2.1.4
 _ZN3CEC7CLibCEC16SwitchMonitoringEb@Base 2.1.4
 _ZN3CEC7CLibCEC16VendorIdToStringEj@Base 3.0.1
 _ZN3CEC7CLibCEC17CommandFromStringEPKc@Base 3.0.1
 _ZN3CEC7CLibCEC17GetDeviceVendorIdENS_19cec_logical_addressE@Base 2.1.4
 _ZN3CEC7CLibCEC17SetLogicalAddressENS_19cec_logical_addressE@Base 2.1.4
 _ZN3CEC7CLibCEC18IsActiveDeviceTypeENS_15cec_device_typeE@Base 2.1.4
 _ZN3CEC7CLibCEC18SetDeckControlModeENS_21cec_deck_control_modeEb@Base 2.1.4
 _ZN3CEC7CLibCEC18SetPhysicalAddressEt@Base 2.1.4
 _ZN3CEC7CLibCEC19GetDeviceCecVersionENS_19cec_logical_addressE@Base 2.1.4
 _ZN3CEC7CLibCEC19GetLogicalAddressesEv@Base 2.1.4
 _ZN3CEC7CLibCEC19InitVideoStandaloneEv@Base 2.1.4
 _ZN3CEC7CLibCEC19RescanActiveDevicesEv@Base 2.1.4
 _ZN3CEC7CLibCEC20CheckKeypressTimeoutEv@Base 2.1.4
 _ZN3CEC7CLibCEC20GetDeviceInformationEPKcPNS_20libcec_configurationEj@Base 2.1.4
 _ZN3CEC7CLibCEC20GetDevicePowerStatusENS_19cec_logical_addressE@Base 2.1.4
 _ZN3CEC7CLibCEC20IsLibCECActiveSourceEv@Base 2.1.4
 _ZN3CEC7CLibCEC20PersistConfigurationEPNS_20libcec_configurationE@Base 2.1.4
 _ZN3CEC7CLibCEC21GetDeviceMenuLanguageB5cxx11ENS_19cec_logical_addressE@Base 4.0
 _ZN3CEC7CLibCEC22IsValidPhysicalAddressEt@Base 2.1.4
 _ZN3CEC7CLibCEC23CanPersistConfigurationEv@Base 2.1.4
 _ZN3CEC7CLibCEC23GetCurrentConfigurationEPNS_20libcec_configurationE@Base 2.1.4
 _ZN3CEC7CLibCEC24GetDevicePhysicalAddressENS_19cec_logical_addressE@Base 2.1.4
 _ZN3CEC7CLibCEC4OpenEPKcj@Base 2.1.4
 _ZN3CEC7CLibCEC5AlertENS_12libcec_alertERKNS_16libcec_parameterE@Base 2.1.4
 _ZN3CEC7CLibCEC5CloseEv@Base 2.1.4
 _ZN3CEC7CLibCEC6AddLogENS_13cec_log_levelEPKcz@Base 2.1.4
 _ZN3CEC7CLibCEC7GetTypeENS_19cec_logical_addressE@Base 2.1.4
 _ZN3CEC7CLibCEC8ToStringENS_10cec_opcodeE@Base 2.1.4
 _ZN3CEC7CLibCEC8ToStringENS_11cec_versionE@Base 2.1.4
 _ZN3CEC7CLibCEC8ToStringENS_13cec_deck_infoE@Base 2.1.4
 _ZN3CEC7CLibCEC8ToStringENS_14cec_menu_stateE@Base 2.1.4
 _ZN3CEC7CLibCEC8ToStringENS_15cec_device_typeE@Base 3.0.1
 _ZN3CEC7CLibCEC8ToStringENS_16cec_adapter_typeE@Base 2.1.4
 _ZN3CEC7CLibCEC8ToStringENS_16cec_audio_statusE@Base 2.1.4
 _ZN3CEC7CLibCEC8ToStringENS_16cec_power_statusE@Base 2.1.4
 _ZN3CEC7CLibCEC8ToStringENS_19cec_logical_addressE@Base 2.1.4
 _ZN3CEC7CLibCEC8ToStringENS_21cec_deck_control_modeE@Base 2.1.4
 _ZN3CEC7CLibCEC8ToStringENS_21cec_user_control_codeE@Base 2.1.4
 _ZN3CEC7CLibCEC8ToStringENS_23cec_system_audio_statusE@Base 2.1.4
 _ZN3CEC7CLibCEC8TransmitERKNS_11cec_commandE@Base 2.1.4
 _ZN3CEC7CLibCEC8VolumeUpEb@Base 2.1.4
 _ZN3CEC7CLibCEC9AudioMuteEv@Base 2.1.4
 _ZN3CEC7CLibCECC1Ev@Base 2.1.4
 _ZN3CEC7CLibCECC2Ev@Base 2.1.4
 _ZN3CEC7CLibCECD0Ev@Base 2.1.4
 _ZN3CEC7CLibCECD1Ev@Base 2.1.4
 _ZN3CEC7CLibCECD2Ev@Base 2.1.4
 _ZN3CEC9CCECTuner17ResetDeviceStatusEv@Base 2.1.4
 _ZN3CEC9CCECTunerC1EPNS_13CCECProcessorENS_19cec_logical_addressEt@Base 2.1.4
 _ZN3CEC9CCECTunerC2EPNS_13CCECProcessorENS_19cec_logical_addressEt@Base 2.1.4
 _ZN3CEC9CCECTunerD0Ev@Base 2.1.4
 _ZN3CEC9CCECTunerD1Ev@Base 2.1.4
 _ZN3CEC9CCECTunerD2Ev@Base 2.1.4
 _ZN3CEC9CResponse4WaitEj@Base 2.1.4
 _ZN3CEC9CResponse9BroadcastEv@Base 2.1.4
 _ZN3CEC9CResponseC1ENS_10cec_opcodeE@Base 2.1.4
 _ZN3CEC9CResponseC2ENS_10cec_opcodeE@Base 2.1.4
 _ZN3CEC9CResponseD1Ev@Base 2.1.4
 _ZN3CEC9CResponseD2Ev@Base 2.1.4
 _ZNK3CEC10CCECClient15GetDeviceByTypeENS_15cec_device_typeE@Base 2.1.4
 _ZNK3CEC13CCECBusDevice12GetProcessorEv@Base 2.1.4
 _ZNK3CEC13CCECBusDevice13GetLastActiveEv@Base 2.1.4
 _ZNK3CEC13CCECBusDevice14IsActiveSourceEv@Base 2.1.4
 _ZNK3CEC13CCECBusDevice16ActiveSourceSentEv@Base 4.0.3+dfsg1-1~
 _ZNK3CEC13CCECBusDevice17GetLogicalAddressEv@Base 2.1.4
 _ZNK3CEC13CCECBusDevice21GetLogicalAddressNameEv@Base 2.1.4
 _ZNK3CEC13CCECBusDevice7GetTypeEv@Base 2.1.4
 _ZNK3CEC13CCECDeviceMap13GetChildrenOfERSt6vectorIPNS_13CCECBusDeviceESaIS3_EES3_@Base 2.1.4
 _ZNK3CEC13CCECDeviceMap14GetWakeDevicesERKNS_20libcec_configurationERSt6vectorIPNS_13CCECBusDeviceESaIS6_EE@Base 2.1.4
 _ZNK3CEC13CCECDeviceMap15GetActiveSourceEv@Base 2.1.4
 _ZNK3CEC13CCECDeviceMap18GetPowerOffDevicesERKNS_20libcec_configurationERSt6vectorIPNS_13CCECBusDeviceESaIS6_EE@Base 2.1.4
 _ZNK3CEC13CCECDeviceMap19GetLibCECControlledERSt6vectorIPNS_13CCECBusDeviceESaIS3_EE@Base 2.1.4
 _ZNK3CEC13CCECDeviceMap2AtENS_19cec_logical_addressE@Base 2.1.4
 _ZNK3CEC13CCECDeviceMap2AtEh@Base 2.1.4
 _ZNK3CEC13CCECDeviceMap3GetERSt6vectorIPNS_13CCECBusDeviceESaIS3_EE@Base 2.1.4
 _ZNK3CEC13CCECDeviceMap9GetActiveERSt6vectorIPNS_13CCECBusDeviceESaIS3_EE@Base 2.1.4
 _ZNK3CEC13CCECDeviceMap9GetByTypeENS_15cec_device_typeERSt6vectorIPNS_13CCECBusDeviceESaIS4_EE@Base 2.1.4
 _ZNK3CEC13CCECDeviceMapixENS_19cec_logical_addressE@Base 2.1.4
 _ZNK3CEC13CCECDeviceMapixEh@Base 2.1.4
 _ZNK3CEC13CCECProcessor14GetAudioSystemEv@Base 2.1.4
 _ZNK3CEC13CCECProcessor17GetPlaybackDeviceENS_19cec_logical_addressE@Base 2.1.4
 _ZNK3CEC13CCECProcessor17IsHandledByLibCECENS_19cec_logical_addressE@Base 2.1.4
 _ZNK3CEC13CCECProcessor18GetAdapterVendorIdEv@Base 2.1.4
 _ZNK3CEC13CCECProcessor18GetRecordingDeviceENS_19cec_logical_addressE@Base 2.1.4
 _ZNK3CEC13CCECProcessor19GetAdapterProductIdEv@Base 2.1.4
 _ZNK3CEC13CCECProcessor26GetDetectedPhysicalAddressEv@Base 2.1.4
 _ZNK3CEC13CCECProcessor5GetTVEv@Base 2.1.4
 _ZNK3CEC13CCECProcessor6GetLibEv@Base 2.1.4
 _ZNK3CEC13CCECProcessor8GetTunerENS_19cec_logical_addressE@Base 2.1.4
 _ZNK3CEC13CCECProcessor9GetDeviceENS_19cec_logical_addressE@Base 2.1.4
 _ZNK3CEC17CVLCommandHandler18SupportsDeviceTypeENS_15cec_device_typeE@Base 2.1.4
 _ZNK3CEC17CVLCommandHandler24GetReplacementDeviceTypeENS_15cec_device_typeE@Base 2.1.4
 _ZNK3CEC18CCECAdapterMessage10NeedsRetryEv@Base 2.1.4
 _ZNK3CEC18CCECAdapterMessage10ResponseToEv@Base 2.1.4
 _ZNK3CEC18CCECAdapterMessage11DestinationEv@Base 2.1.4
 _ZNK3CEC18CCECAdapterMessage12ReplyIsErrorEv@Base 2.1.4
 _ZNK3CEC18CCECAdapterMessage14IsTransmissionEv@Base 4.0
 _ZNK3CEC18CCECAdapterMessage15HasStartMessageEv@Base 2.1.4
 _ZNK3CEC18CCECAdapterMessage16PushToCecCommandERNS_11cec_commandE@Base 2.1.4
 _ZNK3CEC18CCECAdapterMessage2AtEh@Base 2.1.4
 _ZNK3CEC18CCECAdapterMessage4SizeEv@Base 2.1.4
 _ZNK3CEC18CCECAdapterMessage5IsACKEv@Base 2.1.4
 _ZNK3CEC18CCECAdapterMessage5IsEOMEv@Base 2.1.4
 _ZNK3CEC18CCECAdapterMessage5ReplyEv@Base 2.1.4
 _ZNK3CEC18CCECAdapterMessage7IsEmptyEv@Base 2.1.4
 _ZNK3CEC18CCECAdapterMessage7IsErrorEv@Base 2.1.4
 _ZNK3CEC18CCECAdapterMessage7MessageEv@Base 2.1.4
 _ZNK3CEC18CCECAdapterMessage8ToStringB5cxx11Ev@Base 3.0.1
 _ZNK3CEC18CCECAdapterMessage9InitiatorEv@Base 2.1.4
 _ZNK3CEC18CCECAdapterMessageixEh@Base 2.1.4
 _ZNK3CEC18CCECCommandHandler12GetMyDevicesERSt6vectorIPNS_13CCECBusDeviceESaIS3_EE@Base 2.1.4
 _ZNK3CEC18CCECCommandHandler18GetTransmitRetriesEv@Base 2.1.4
 _ZNK3CEC18CCECCommandHandler18SupportsDeviceTypeENS_15cec_device_typeE@Base 2.1.4
 _ZNK3CEC18CCECCommandHandler19ActiveSourcePendingEv@Base 2.1.4
 _ZNK3CEC18CCECCommandHandler24GetReplacementDeviceTypeENS_15cec_device_typeE@Base 2.1.4
 _ZNK3CEC18CCECCommandHandler26GetDeviceByPhysicalAddressEt@Base 2.1.4
 _ZNK3CEC18CCECCommandHandler34SendDeckStatusUpdateOnActiveSourceEv@Base 2.1.4
 _ZNK3CEC18CCECCommandHandler9GetDeviceENS_19cec_logical_addressE@Base 2.1.4
 _ZNK3CEC26CAOCECAdapterCommunication18GetAdapterVendorIdEv@Base 4.0.2+dfsg1-3~
 _ZNK3CEC26CAOCECAdapterCommunication19GetAdapterProductIdEv@Base 4.0.2+dfsg1-3~
 _ZNK3CEC26CAOCECAdapterCommunication19GetLogicalAddressesEv@Base 4.0.3+dfsg1-1~
 _ZNK3CEC26CAOCECAdapterCommunication8GetErrorB5cxx11Ev@Base 4.0.2+dfsg1-3~
 _ZNK3CEC27CUSBCECAdapterCommunication13IsInitialisedEv@Base 4.0.3+dfsg1-1~
 _ZNK3CEC27CUSBCECAdapterCommunication18GetAdapterVendorIdEv@Base 2.1.4
 _ZNK3CEC27CUSBCECAdapterCommunication19GetAdapterProductIdEv@Base 2.1.4
 _ZNK3CEC27CUSBCECAdapterCommunication19GetLogicalAddressesEv@Base 4.0.3+dfsg1-1~
 _ZNK3CEC27CUSBCECAdapterCommunication8GetErrorB5cxx11Ev@Base 3.0.1
 _ZNK3CEC28CCECAdapterMessageQueueEntry19TimedOutOrSucceededEv@Base 2.1.4
 _ZNK3CEC28CCECAdapterMessageQueueEntry8ToStringEv@Base 2.1.4
 _ZNK3CEC30CExynosCECAdapterCommunication18GetAdapterVendorIdEv@Base 4.0.2+dfsg1-3~
 _ZNK3CEC30CExynosCECAdapterCommunication19GetAdapterProductIdEv@Base 4.0.2+dfsg1-3~
 _ZNK3CEC30CExynosCECAdapterCommunication19GetLogicalAddressesEv@Base 4.0.3+dfsg1-1~
 _ZNK3CEC30CExynosCECAdapterCommunication8GetErrorB5cxx11Ev@Base 4.0.2+dfsg1-3~
 _ZNK3CEC7CLibCEC18GetAdapterVendorIdEv@Base 2.1.4
 _ZNK3CEC7CLibCEC19GetAdapterProductIdEv@Base 2.1.4
 _ZNKSt5ctypeIcE8do_widenEc@Base 4.0.2
 (optional=templinst|arch=armel riscv64)_ZNSt15_Sp_counted_ptrIDnLN9__gnu_cxx12_Lock_policyE1EE10_M_disposeEv@Base 3.1.0
 (optional=templinst|arch=!armel !riscv64)_ZNSt15_Sp_counted_ptrIDnLN9__gnu_cxx12_Lock_policyE2EE10_M_disposeEv@Base 3.0.1
 (optional=templinst|arch=armel riscv64)_ZNSt15_Sp_counted_ptrIPN3CEC10CCECClientELN9__gnu_cxx12_Lock_policyE1EE10_M_destroyEv@Base 3.1.0
 (optional=templinst|arch=armel riscv64)_ZNSt15_Sp_counted_ptrIPN3CEC10CCECClientELN9__gnu_cxx12_Lock_policyE1EE10_M_disposeEv@Base 3.1.0
 (optional=templinst|arch=armel riscv64)_ZNSt15_Sp_counted_ptrIPN3CEC10CCECClientELN9__gnu_cxx12_Lock_policyE1EE14_M_get_deleterERKSt9type_info@Base 3.1.0
 (optional=templinst|arch=armel riscv64)_ZNSt15_Sp_counted_ptrIPN3CEC10CCECClientELN9__gnu_cxx12_Lock_policyE1EED0Ev@Base 3.1.0
 (optional=templinst|arch=armel riscv64)_ZNSt15_Sp_counted_ptrIPN3CEC10CCECClientELN9__gnu_cxx12_Lock_policyE1EED1Ev@Base 3.1.0
 (optional=templinst|arch=armel riscv64)_ZNSt15_Sp_counted_ptrIPN3CEC10CCECClientELN9__gnu_cxx12_Lock_policyE1EED2Ev@Base 3.1.0
 (optional=templinst|arch=!armel !riscv64)_ZNSt15_Sp_counted_ptrIPN3CEC10CCECClientELN9__gnu_cxx12_Lock_policyE2EE10_M_destroyEv@Base 3.0.1
 (optional=templinst|arch=!armel !riscv64)_ZNSt15_Sp_counted_ptrIPN3CEC10CCECClientELN9__gnu_cxx12_Lock_policyE2EE10_M_disposeEv@Base 3.0.1
 (optional=templinst|arch=!armel !riscv64)_ZNSt15_Sp_counted_ptrIPN3CEC10CCECClientELN9__gnu_cxx12_Lock_policyE2EE14_M_get_deleterERKSt9type_info@Base 3.0.1
 (optional=templinst|arch=!armel !riscv64)_ZNSt15_Sp_counted_ptrIPN3CEC10CCECClientELN9__gnu_cxx12_Lock_policyE2EED0Ev@Base 3.0.1
 (optional=templinst|arch=!armel !riscv64)_ZNSt15_Sp_counted_ptrIPN3CEC10CCECClientELN9__gnu_cxx12_Lock_policyE2EED1Ev@Base 3.0.1
 (optional=templinst|arch=!armel !riscv64)_ZNSt15_Sp_counted_ptrIPN3CEC10CCECClientELN9__gnu_cxx12_Lock_policyE2EED2Ev@Base 3.0.1
 (optional=templinst|arch=armel riscv64)_ZNSt16_Sp_counted_baseILN9__gnu_cxx12_Lock_policyE1EE10_M_destroyEv@Base 3.1.0
 (optional=templinst|arch=armel riscv64)_ZNSt16_Sp_counted_baseILN9__gnu_cxx12_Lock_policyE1EE10_M_releaseEv@Base 3.1.0
 (optional=templinst|arch=!armel !riscv64)_ZNSt16_Sp_counted_baseILN9__gnu_cxx12_Lock_policyE2EE10_M_destroyEv@Base 3.0.1
 (optional=templinst|arch=!armel !riscv64)_ZNSt16_Sp_counted_baseILN9__gnu_cxx12_Lock_policyE2EE10_M_releaseEv@Base 3.0.1
 (optional=templinst)_ZNSt5dequeIN3CEC11cec_commandESaIS1_EE16_M_push_back_auxIJRKS1_EEEvDpOT_@Base 3.0.1
 (optional=templinst)_ZNSt5dequeIPN3CEC13CCallbackWrapESaIS2_EE16_M_push_back_auxIJRKS2_EEEvDpOT_@Base 4.0.3+dfsg1-1~
 (optional=templinst)_ZNSt5dequeIPN3CEC28CCECAdapterMessageQueueEntryESaIS2_EE16_M_push_back_auxIJRKS2_EEEvDpOT_@Base 3.0.1
 _ZNSt6vectorIN3CEC11cec_commandESaIS1_EE17_M_realloc_insertIJRKS1_EEEvN9__gnu_cxx17__normal_iteratorIPS1_S3_EEDpOT_@Base 4.0.2+dfsg1-1~
 _ZNSt6vectorIN3CEC20device_type_change_tESaIS1_EE17_M_realloc_insertIJRKS1_EEEvN9__gnu_cxx17__normal_iteratorIPS1_S3_EEDpOT_@Base 4.0.2+dfsg1-1~
 (optional=templinst)_ZNSt6vectorIN3CEC20device_type_change_tESaIS1_EED1Ev@Base 3.0.1
 (optional=templinst)_ZNSt6vectorIN3CEC20device_type_change_tESaIS1_EED2Ev@Base 3.0.1
 _ZNSt6vectorIPN3CEC13CCECBusDeviceESaIS2_EE17_M_realloc_insertIJRKS2_EEEvN9__gnu_cxx17__normal_iteratorIPS2_S4_EEDpOT_@Base 4.0.2+dfsg1-1~
 _ZNSt6vectorIPN3CEC13CCECBusDeviceESaIS2_EE17_M_realloc_insertIJS2_EEEvN9__gnu_cxx17__normal_iteratorIPS2_S4_EEDpOT_@Base 4.0.2+dfsg1-1~
 (optional=templinst)_ZNSt6vectorIPN3CEC13CCECBusDeviceESaIS2_EEaSERKS4_@Base 2.1.4
 _ZNSt6vectorISt10shared_ptrIN3CEC10CCECClientEESaIS3_EE17_M_realloc_insertIJRKS3_EEEvN9__gnu_cxx17__normal_iteratorIPS3_S5_EEDpOT_@Base 4.0.2+dfsg1-1~
 (optional=templinst)_ZNSt6vectorISt10shared_ptrIN3CEC10CCECClientEESaIS3_EED1Ev@Base 3.0.1
 (optional=templinst)_ZNSt6vectorISt10shared_ptrIN3CEC10CCECClientEESaIS3_EED2Ev@Base 3.0.1
 (arch-bits=64)_ZNSt6vectorImSaImEE17_M_realloc_insertIJRKmEEEvN9__gnu_cxx17__normal_iteratorIPmS1_EEDpOT_@Base 4.0.2+dfsg1-1~
 (arch-bits=32)_ZNSt6vectorIySaIyEE17_M_realloc_insertIJRKyEEEvN9__gnu_cxx17__normal_iteratorIPyS1_EEDpOT_@Base 4.0.2+dfsg1-1~
 (optional=templinst)_ZNSt8_Rb_treeIN3CEC10cec_opcodeES1_St9_IdentityIS1_ESt4lessIS1_ESaIS1_EE16_M_insert_uniqueIRKS1_EESt4pairISt17_Rb_tree_iteratorIS1_EbEOT_@Base 3.0.1
 (optional=templinst)_ZNSt8_Rb_treeIN3CEC10cec_opcodeES1_St9_IdentityIS1_ESt4lessIS1_ESaIS1_EE8_M_eraseEPSt13_Rb_tree_nodeIS1_E@Base 2.1.4
 (optional=templinst|arch=alpha armel armhf hurd-i386 i386 mipsel powerpc ppc64 s390x)_ZNSt8_Rb_treeIN3CEC10cec_opcodeESt4pairIKS1_PNS0_9CResponseEESt10_Select1stIS6_ESt4lessIS1_ESaIS6_EE22_M_emplace_hint_uniqueIJRKSt21piecewise_construct_tSt5tupleIJRS3_EESH_IJEEEEESt17_Rb_tree_iteratorIS6_ESt23_Rb_tree_const_iteratorIS6_EDpOT_@Base 4.0.4+dfsg1-3~
 (optional=templinst|arch=amd64 arm64 hppa ia64 m68k mips64el ppc64el riscv64 sh4 sparc64 x32)_ZNSt8_Rb_treeIN3CEC10cec_opcodeESt4pairIKS1_PNS0_9CResponseEESt10_Select1stIS6_ESt4lessIS1_ESaIS6_EE29_M_get_insert_hint_unique_posESt23_Rb_tree_const_iteratorIS6_ERS3_@Base 3.0.1
 (optional=templinst)_ZNSt8_Rb_treeIN3CEC10cec_opcodeESt4pairIKS1_PNS0_9CResponseEESt10_Select1stIS6_ESt4lessIS1_ESaIS6_EE8_M_eraseEPSt13_Rb_tree_nodeIS6_E@Base 2.1.4
 (optional=templinst)_ZNSt8_Rb_treeIN3CEC10cec_opcodeESt4pairIKS1_St6vectorINS0_11cec_commandESaIS5_EEESt10_Select1stIS8_ESt4lessIS1_ESaIS8_EE17_M_emplace_uniqueIJS2_IS1_S7_EEEES2_ISt17_Rb_tree_iteratorIS8_EbEDpOT_@Base 4.0.3+dfsg1-1~
 (optional=templinst)_ZNSt8_Rb_treeIN3CEC10cec_opcodeESt4pairIKS1_St6vectorINS0_11cec_commandESaIS5_EEESt10_Select1stIS8_ESt4lessIS1_ESaIS8_EE8_M_eraseEPSt13_Rb_tree_nodeIS8_E@Base 2.1.4
 (optional=templinst)_ZNSt8_Rb_treeIN3CEC19cec_logical_addressESt4pairIKS1_PNS0_13CCECBusDeviceEESt10_Select1stIS6_ESt4lessIS1_ESaIS6_EE17_M_emplace_uniqueIJS2_IS1_S5_EEEES2_ISt17_Rb_tree_iteratorIS6_EbEDpOT_@Base 4.0.3+dfsg1-1~
 (optional=templinst)_ZNSt8_Rb_treeIN3CEC19cec_logical_addressESt4pairIKS1_PNS0_13CCECBusDeviceEESt10_Select1stIS6_ESt4lessIS1_ESaIS6_EE8_M_eraseEPSt13_Rb_tree_nodeIS6_E@Base 2.1.4
 (optional=templinst)_ZNSt8_Rb_treeIN3CEC19cec_logical_addressESt4pairIKS1_St10shared_ptrINS0_10CCECClientEEESt10_Select1stIS7_ESt4lessIS1_ESaIS7_EE17_M_emplace_uniqueIJS2_IS1_S6_EEEES2_ISt17_Rb_tree_iteratorIS7_EbEDpOT_@Base 4.0.4+dfsg1-2~
 (optional=templinst)_ZNSt8_Rb_treeIN3CEC19cec_logical_addressESt4pairIKS1_St10shared_ptrINS0_10CCECClientEEESt10_Select1stIS7_ESt4lessIS1_ESaIS7_EE5eraseERS3_@Base 3.0.1
 (optional=templinst)_ZNSt8_Rb_treeIN3CEC19cec_logical_addressESt4pairIKS1_St10shared_ptrINS0_10CCECClientEEESt10_Select1stIS7_ESt4lessIS1_ESaIS7_EE8_M_eraseEPSt13_Rb_tree_nodeIS7_E@Base 3.0.1
 (optional=templinst|arch=alpha amd64 arm64 ia64 mips64el ppc64 ppc64el riscv64 s390x)_ZNSt8_Rb_treeImSt4pairIKmPN3CEC28CCECAdapterMessageQueueEntryEESt10_Select1stIS5_ESt4lessImESaIS5_EE17_M_emplace_uniqueIJS0_ImS4_EEEES0_ISt17_Rb_tree_iteratorIS5_EbEDpOT_@Base 4.0.4+dfsg1-2~
 (arch-bits=64)_ZNSt8_Rb_treeImSt4pairIKmPN3CEC28CCECAdapterMessageQueueEntryEESt10_Select1stIS5_ESt4lessImESaIS5_EE5eraseERS1_@Base 3.1.0
 (arch-bits=64)_ZNSt8_Rb_treeImSt4pairIKmPN3CEC28CCECAdapterMessageQueueEntryEESt10_Select1stIS5_ESt4lessImESaIS5_EE8_M_eraseEPSt13_Rb_tree_nodeIS5_E@Base 3.1.0
 (optional=templinst|arch=!alpha !amd64 !arm64 !ia64 !mips64el !ppc64 !ppc64el !riscv64 !s390x)_ZNSt8_Rb_treeIySt4pairIKyPN3CEC28CCECAdapterMessageQueueEntryEESt10_Select1stIS5_ESt4lessIyESaIS5_EE17_M_emplace_uniqueIJS0_IyS4_EEEES0_ISt17_Rb_tree_iteratorIS5_EbEDpOT_@Base 4.0.4+dfsg1-3~
 (arch-bits=32)_ZNSt8_Rb_treeIySt4pairIKyPN3CEC28CCECAdapterMessageQueueEntryEESt10_Select1stIS5_ESt4lessIyESaIS5_EE5eraseERS1_@Base 3.1.0
 (arch-bits=32)_ZNSt8_Rb_treeIySt4pairIKyPN3CEC28CCECAdapterMessageQueueEntryEESt10_Select1stIS5_ESt4lessIyESaIS5_EE8_M_eraseEPSt13_Rb_tree_nodeIS5_E@Base 3.1.0
 _ZTIN10P8PLATFORM11CSerialPortE@Base 3.1.0
 _ZTIN10P8PLATFORM11PreventCopyE@Base 3.1.0
 _ZTIN10P8PLATFORM12SyncedBufferIN3CEC11cec_commandEEE@Base 3.1.0
 _ZTIN10P8PLATFORM12SyncedBufferIPN3CEC13CCallbackWrapEEE@Base 3.1.0
 _ZTIN10P8PLATFORM12SyncedBufferIPN3CEC28CCECAdapterMessageQueueEntryEEE@Base 3.1.0
 _ZTIN10P8PLATFORM13CCommonSocketIiEE@Base 3.1.0
 _ZTIN10P8PLATFORM13CNVEdidParserE@Base 3.1.0
 _ZTIN10P8PLATFORM13CSerialSocketE@Base 3.1.0
 _ZTIN10P8PLATFORM14CADLEdidParserE@Base 3.1.0
 _ZTIN10P8PLATFORM14CConditionImplE@Base 3.1.0
 _ZTIN10P8PLATFORM14CDRMEdidParserE@Base 4.0.2
 _ZTIN10P8PLATFORM16CProtectedSocketINS_13CSerialSocketEEE@Base 3.1.0
 _ZTIN10P8PLATFORM16CRandrEdidParserE@Base 4.0.1
 _ZTIN10P8PLATFORM6CEventE@Base 3.1.0
 _ZTIN10P8PLATFORM7CThreadE@Base 3.1.0
 _ZTIN10P8PLATFORM7ISocketE@Base 3.1.0
 _ZTIN3CEC10CCECClientE@Base 2.1.4
 _ZTIN3CEC11ICECAdapterE@Base 2.1.4
 _ZTIN3CEC13CCECBusDeviceE@Base 2.1.4
 _ZTIN3CEC13CCECDeviceMapE@Base 2.1.4
 _ZTIN3CEC13CCECProcessorE@Base 2.1.4
 _ZTIN3CEC15CAdapterFactoryE@Base 2.1.4
 _ZTIN3CEC15CCECAudioSystemE@Base 2.1.4
 _ZTIN3CEC15CCECInputBufferE@Base 2.1.4
 _ZTIN3CEC17CANCommandHandlerE@Base 2.1.4
 _ZTIN3CEC17CAQCommandHandlerE@Base 2.1.4
 _ZTIN3CEC17CImageViewOnCheckE@Base 2.1.4
 _ZTIN3CEC17CPHCommandHandlerE@Base 2.1.4
 _ZTIN3CEC17CRHCommandHandlerE@Base 2.1.4
 _ZTIN3CEC17CRLCommandHandlerE@Base 2.1.4
 _ZTIN3CEC17CSLCommandHandlerE@Base 2.1.4
 _ZTIN3CEC17CVLCommandHandlerE@Base 2.1.4
 _ZTIN3CEC18CAdapterPingThreadE@Base 2.1.4
 _ZTIN3CEC18CCECCommandHandlerE@Base 2.1.4
 _ZTIN3CEC18CCECPlaybackDeviceE@Base 2.1.4
 _ZTIN3CEC19CAQPowerStatusCheckE@Base 2.1.4
 _ZTIN3CEC19CCECRecordingDeviceE@Base 2.1.4
 _ZTIN3CEC21CCECStandbyProtectionE@Base 2.1.4
 _ZTIN3CEC21IAdapterCommunicationE@Base 2.1.4
 _ZTIN3CEC23CCECAdapterMessageQueueE@Base 2.1.4
 _ZTIN3CEC25CAdapterEepromWriteThreadE@Base 2.1.4
 _ZTIN3CEC26CAOCECAdapterCommunicationE@Base 4.0.2+dfsg1-3~
 _ZTIN3CEC26CCECAllocateLogicalAddressE@Base 2.1.4
 _ZTIN3CEC27CUSBCECAdapterCommunicationE@Base 2.1.4
 _ZTIN3CEC28CCECAdapterMessageQueueEntryE@Base 2.1.4
 _ZTIN3CEC29IAdapterCommunicationCallbackE@Base 2.1.4
 _ZTIN3CEC30CExynosCECAdapterCommunicationE@Base 4.0.2+dfsg1-3~
 _ZTIN3CEC6CCECTVE@Base 2.1.4
 _ZTIN3CEC7CLibCECE@Base 2.1.4
 _ZTIN3CEC9CCECTunerE@Base 2.1.4
 (arch=armel riscv64)_ZTIN9__gnu_cxx7__mutexE@Base 4.0.2+dfsg1-3~
 (arch=armel riscv64)_ZTISt11_Mutex_baseILN9__gnu_cxx12_Lock_policyE1EE@Base 4.0.2+dfsg1-3~
 (arch=!armel !riscv64)_ZTISt11_Mutex_baseILN9__gnu_cxx12_Lock_policyE2EE@Base 3.1.0
 (arch=armel riscv64)_ZTISt15_Sp_counted_ptrIPN3CEC10CCECClientELN9__gnu_cxx12_Lock_policyE1EE@Base 4.0.2+dfsg1-3~
 (arch=!armel !riscv64)_ZTISt15_Sp_counted_ptrIPN3CEC10CCECClientELN9__gnu_cxx12_Lock_policyE2EE@Base 3.1.0
 (arch=armel riscv64)_ZTISt16_Sp_counted_baseILN9__gnu_cxx12_Lock_policyE1EE@Base 4.0.2+dfsg1-3~
 (arch=!armel !riscv64)_ZTISt16_Sp_counted_baseILN9__gnu_cxx12_Lock_policyE2EE@Base 3.1.0
 _ZTSN10P8PLATFORM11CSerialPortE@Base 3.1.0
 _ZTSN10P8PLATFORM11PreventCopyE@Base 3.1.0
 _ZTSN10P8PLATFORM12SyncedBufferIN3CEC11cec_commandEEE@Base 3.1.0
 _ZTSN10P8PLATFORM12SyncedBufferIPN3CEC13CCallbackWrapEEE@Base 3.1.0
 _ZTSN10P8PLATFORM12SyncedBufferIPN3CEC28CCECAdapterMessageQueueEntryEEE@Base 3.1.0
 _ZTSN10P8PLATFORM13CCommonSocketIiEE@Base 3.1.0
 _ZTSN10P8PLATFORM13CNVEdidParserE@Base 3.1.0
 _ZTSN10P8PLATFORM13CSerialSocketE@Base 3.1.0
 _ZTSN10P8PLATFORM14CADLEdidParserE@Base 3.1.0
 _ZTSN10P8PLATFORM14CConditionImplE@Base 3.1.0
 _ZTSN10P8PLATFORM14CDRMEdidParserE@Base 4.0.2
 _ZTSN10P8PLATFORM16CProtectedSocketINS_13CSerialSocketEEE@Base 3.1.0
 _ZTSN10P8PLATFORM16CRandrEdidParserE@Base 4.0.1
 _ZTSN10P8PLATFORM6CEventE@Base 3.1.0
 _ZTSN10P8PLATFORM7CThreadE@Base 3.1.0
 _ZTSN10P8PLATFORM7ISocketE@Base 3.1.0
 _ZTSN3CEC10CCECClientE@Base 2.1.4
 _ZTSN3CEC11ICECAdapterE@Base 2.1.4
 _ZTSN3CEC13CCECBusDeviceE@Base 2.1.4
 _ZTSN3CEC13CCECDeviceMapE@Base 2.1.4
 _ZTSN3CEC13CCECProcessorE@Base 2.1.4
 _ZTSN3CEC15CAdapterFactoryE@Base 2.1.4
 _ZTSN3CEC15CCECAudioSystemE@Base 2.1.4
 _ZTSN3CEC15CCECInputBufferE@Base 2.1.4
 _ZTSN3CEC17CANCommandHandlerE@Base 2.1.4
 _ZTSN3CEC17CAQCommandHandlerE@Base 2.1.4
 _ZTSN3CEC17CImageViewOnCheckE@Base 2.1.4
 _ZTSN3CEC17CPHCommandHandlerE@Base 2.1.4
 _ZTSN3CEC17CRHCommandHandlerE@Base 2.1.4
 _ZTSN3CEC17CRLCommandHandlerE@Base 2.1.4
 _ZTSN3CEC17CSLCommandHandlerE@Base 2.1.4
 _ZTSN3CEC17CVLCommandHandlerE@Base 2.1.4
 _ZTSN3CEC18CAdapterPingThreadE@Base 2.1.4
 _ZTSN3CEC18CCECCommandHandlerE@Base 2.1.4
 _ZTSN3CEC18CCECPlaybackDeviceE@Base 2.1.4
 _ZTSN3CEC19CAQPowerStatusCheckE@Base 2.1.4
 _ZTSN3CEC19CCECRecordingDeviceE@Base 2.1.4
 _ZTSN3CEC21CCECStandbyProtectionE@Base 2.1.4
 _ZTSN3CEC21IAdapterCommunicationE@Base 2.1.4
 _ZTSN3CEC23CCECAdapterMessageQueueE@Base 2.1.4
 _ZTSN3CEC25CAdapterEepromWriteThreadE@Base 2.1.4
 _ZTSN3CEC26CAOCECAdapterCommunicationE@Base 4.0.2+dfsg1-3~
 _ZTSN3CEC26CCECAllocateLogicalAddressE@Base 2.1.4
 _ZTSN3CEC27CUSBCECAdapterCommunicationE@Base 2.1.4
 _ZTSN3CEC28CCECAdapterMessageQueueEntryE@Base 2.1.4
 _ZTSN3CEC29IAdapterCommunicationCallbackE@Base 2.1.4
 _ZTSN3CEC30CExynosCECAdapterCommunicationE@Base 4.0.2+dfsg1-3~
 _ZTSN3CEC6CCECTVE@Base 2.1.4
 _ZTSN3CEC7CLibCECE@Base 2.1.4
 _ZTSN3CEC9CCECTunerE@Base 2.1.4
 (arch=armel riscv64)_ZTSN9__gnu_cxx7__mutexE@Base 4.0.2+dfsg1-3~
 (arch=armel riscv64)_ZTSSt11_Mutex_baseILN9__gnu_cxx12_Lock_policyE1EE@Base 4.0.2+dfsg1-3~
 (arch=!armel !riscv64)_ZTSSt11_Mutex_baseILN9__gnu_cxx12_Lock_policyE2EE@Base 3.1.0
 (arch=armel riscv64)_ZTSSt15_Sp_counted_ptrIPN3CEC10CCECClientELN9__gnu_cxx12_Lock_policyE1EE@Base 4.0.2+dfsg1-3~
 (arch=!armel !riscv64)_ZTSSt15_Sp_counted_ptrIPN3CEC10CCECClientELN9__gnu_cxx12_Lock_policyE2EE@Base 3.1.0
 (arch=armel riscv64)_ZTSSt16_Sp_counted_baseILN9__gnu_cxx12_Lock_policyE1EE@Base 4.0.2+dfsg1-3~
 (arch=!armel !riscv64)_ZTSSt16_Sp_counted_baseILN9__gnu_cxx12_Lock_policyE2EE@Base 3.1.0
 _ZTVN10P8PLATFORM11CSerialPortE@Base 3.1.0
 _ZTVN10P8PLATFORM12SyncedBufferIN3CEC11cec_commandEEE@Base 3.1.0
 _ZTVN10P8PLATFORM12SyncedBufferIPN3CEC13CCallbackWrapEEE@Base 3.1.0
 _ZTVN10P8PLATFORM12SyncedBufferIPN3CEC28CCECAdapterMessageQueueEntryEEE@Base 3.1.0
 _ZTVN10P8PLATFORM13CCommonSocketIiEE@Base 3.1.0
 _ZTVN10P8PLATFORM13CNVEdidParserE@Base 3.1.0
 _ZTVN10P8PLATFORM13CSerialSocketE@Base 3.1.0
 _ZTVN10P8PLATFORM14CADLEdidParserE@Base 3.1.0
 _ZTVN10P8PLATFORM14CConditionImplE@Base 3.1.0
 _ZTVN10P8PLATFORM14CDRMEdidParserE@Base 4.0.2
 _ZTVN10P8PLATFORM16CProtectedSocketINS_13CSerialSocketEEE@Base 3.1.0
 _ZTVN10P8PLATFORM16CRandrEdidParserE@Base 4.0.1
 _ZTVN10P8PLATFORM6CEventE@Base 3.1.0
 _ZTVN10P8PLATFORM7CThreadE@Base 3.1.0
 _ZTVN3CEC10CCECClientE@Base 2.1.4
 _ZTVN3CEC13CCECBusDeviceE@Base 2.1.4
 _ZTVN3CEC13CCECDeviceMapE@Base 2.1.4
 _ZTVN3CEC13CCECProcessorE@Base 2.1.4
 _ZTVN3CEC15CAdapterFactoryE@Base 2.1.4
 _ZTVN3CEC15CCECAudioSystemE@Base 2.1.4
 _ZTVN3CEC15CCECInputBufferE@Base 2.1.4
 _ZTVN3CEC17CANCommandHandlerE@Base 2.1.4
 _ZTVN3CEC17CAQCommandHandlerE@Base 2.1.4
 _ZTVN3CEC17CImageViewOnCheckE@Base 2.1.4
 _ZTVN3CEC17CPHCommandHandlerE@Base 2.1.4
 _ZTVN3CEC17CRHCommandHandlerE@Base 2.1.4
 _ZTVN3CEC17CRLCommandHandlerE@Base 2.1.4
 _ZTVN3CEC17CSLCommandHandlerE@Base 2.1.4
 _ZTVN3CEC17CVLCommandHandlerE@Base 2.1.4
 _ZTVN3CEC18CAdapterPingThreadE@Base 2.1.4
 _ZTVN3CEC18CCECCommandHandlerE@Base 2.1.4
 _ZTVN3CEC18CCECPlaybackDeviceE@Base 2.1.4
 _ZTVN3CEC19CAQPowerStatusCheckE@Base 2.1.4
 _ZTVN3CEC19CCECRecordingDeviceE@Base 2.1.4
 _ZTVN3CEC21CCECStandbyProtectionE@Base 2.1.4
 _ZTVN3CEC21IAdapterCommunicationE@Base 2.1.4
 _ZTVN3CEC23CCECAdapterMessageQueueE@Base 2.1.4
 _ZTVN3CEC25CAdapterEepromWriteThreadE@Base 2.1.4
 _ZTVN3CEC26CAOCECAdapterCommunicationE@Base 4.0.2+dfsg1-3~
 _ZTVN3CEC26CCECAllocateLogicalAddressE@Base 2.1.4
 _ZTVN3CEC27CUSBCECAdapterCommunicationE@Base 2.1.4
 _ZTVN3CEC28CCECAdapterMessageQueueEntryE@Base 2.1.4
 _ZTVN3CEC30CExynosCECAdapterCommunicationE@Base 4.0.2+dfsg1-3~
 _ZTVN3CEC6CCECTVE@Base 2.1.4
 _ZTVN3CEC7CLibCECE@Base 2.1.4
 _ZTVN3CEC9CCECTunerE@Base 2.1.4
 (arch=armel riscv64)_ZTVSt15_Sp_counted_ptrIPN3CEC10CCECClientELN9__gnu_cxx12_Lock_policyE1EE@Base 4.0.2+dfsg1-3~
 (arch=!armel !riscv64)_ZTVSt15_Sp_counted_ptrIPN3CEC10CCECClientELN9__gnu_cxx12_Lock_policyE2EE@Base 3.1.0
 _ZZN10P8PLATFORM26GetDetachedThreadAttributeEvE12g_threadAttr@Base 3.1.0
 _ZZN10P8PLATFORM26GetDetachedThreadAttributeEvE21bAttributeInitialised@Base 3.1.0
 _ZZN10P8PLATFORM26GetRecursiveMutexAttributeEvE11g_mutexAttr@Base 3.1.0
 _ZZN10P8PLATFORM26GetRecursiveMutexAttributeEvE21bAttributeInitialised@Base 3.1.0
 libcec_adapter_type_to_string@Base 3.0.1
 libcec_audio_get_status@Base 3.0.1
 libcec_audio_mute@Base 3.0.1
 libcec_audio_status_to_string@Base 3.0.1
 libcec_audio_toggle_mute@Base 3.0.1
 libcec_audio_unmute@Base 3.0.1
 libcec_can_persist_configuration@Base 3.0.1
 libcec_cec_version_to_string@Base 3.0.1
 libcec_clear_configuration@Base 3.0.1
 libcec_close@Base 3.0.1
 libcec_deck_control_mode_to_string@Base 3.0.1
 libcec_deck_status_to_string@Base 3.0.1
 libcec_destroy@Base 3.0.1
 libcec_detect_adapters@Base 3.0.1
 libcec_enable_callbacks@Base 3.0.1
 libcec_find_adapters@Base 3.0.1
 libcec_get_active_devices@Base 3.0.1
 libcec_get_active_source@Base 3.0.1
 libcec_get_adapter_product_id@Base 3.0.1
 libcec_get_adapter_vendor_id@Base 3.0.1
 libcec_get_current_configuration@Base 3.0.1
 libcec_get_device_cec_version@Base 3.0.1
 libcec_get_device_information@Base 3.0.1
 libcec_get_device_menu_language@Base 3.0.1
 libcec_get_device_osd_name@Base 3.0.1
 libcec_get_device_physical_address@Base 3.0.1
 libcec_get_device_power_status@Base 3.0.1
 libcec_get_device_vendor_id@Base 3.0.1
 libcec_get_lib_info@Base 3.0.1
 libcec_get_logical_addresses@Base 3.0.1
 libcec_init_video_standalone@Base 3.0.1
 libcec_initialise@Base 3.0.1
 libcec_is_active_device@Base 3.0.1
 libcec_is_active_device_type@Base 3.0.1
 libcec_is_active_source@Base 3.0.1
 libcec_is_libcec_active_source@Base 3.0.1
 libcec_logical_address_to_string@Base 3.0.1
 libcec_menu_state_to_string@Base 3.0.1
 libcec_mute_audio@Base 3.0.1
 libcec_opcode_to_string@Base 3.0.1
 libcec_open@Base 3.0.1
 libcec_persist_configuration@Base 3.0.1
 libcec_ping_adapters@Base 3.0.1
 libcec_poll_device@Base 3.0.1
 libcec_power_on_devices@Base 3.0.1
 libcec_power_status_to_string@Base 3.0.1
 libcec_rescan_devices@Base 3.0.1
 libcec_send_key_release@Base 3.0.1
 libcec_send_keypress@Base 3.0.1
 libcec_set_active_source@Base 3.0.1
 libcec_set_configuration@Base 3.0.1
 libcec_set_deck_control_mode@Base 3.0.1
 libcec_set_deck_info@Base 3.0.1
 libcec_set_hdmi_port@Base 3.0.1
 libcec_set_inactive_view@Base 3.0.1
 libcec_set_logical_address@Base 3.0.1
 libcec_set_menu_state@Base 3.0.1
 libcec_set_osd_string@Base 3.0.1
 libcec_set_physical_address@Base 3.0.1
 libcec_set_stream_path_logical@Base 3.0.1
 libcec_set_stream_path_physical@Base 3.0.1
 libcec_standby_devices@Base 3.0.1
 libcec_start_bootloader@Base 3.0.1
 libcec_switch_monitoring@Base 3.0.1
 libcec_system_audio_status_to_string@Base 3.0.1
 libcec_transmit@Base 3.0.1
 libcec_user_control_key_to_string@Base 3.0.1
 libcec_vendor_id_to_string@Base 3.0.1
 libcec_version_to_string@Base 3.0.1
 libcec_volume_down@Base 3.0.1
 libcec_volume_up@Base 3.0.1
 (c++)"non-virtual thunk to CEC::CAOCECAdapterCommunication::Process()@Base" 4.0.2+dfsg1-3~
 (c++)"non-virtual thunk to CEC::CAOCECAdapterCommunication::~CAOCECAdapterCommunication()@Base" 4.0.2+dfsg1-3~
 (c++)"non-virtual thunk to CEC::CCECProcessor::GetLib() const@Base" 2.1.4
 (c++)"non-virtual thunk to CEC::CCECProcessor::HandleLogicalAddressLost(CEC::cec_logical_address)@Base" 2.1.4
 (c++)"non-virtual thunk to CEC::CCECProcessor::HandlePhysicalAddressChanged(unsigned short)@Base" 2.1.4
 (c++)"non-virtual thunk to CEC::CCECProcessor::HandlePoll(CEC::cec_logical_address, CEC::cec_logical_address)@Base" 2.1.4
 (c++)"non-virtual thunk to CEC::CCECProcessor::HandleReceiveFailed(CEC::cec_logical_address)@Base" 2.1.4
 (c++)"non-virtual thunk to CEC::CCECProcessor::OnCommandReceived(CEC::cec_command const&)@Base" 2.1.4
 (c++)"non-virtual thunk to CEC::CCECProcessor::~CCECProcessor()@Base" 2.1.4
 (c++)"non-virtual thunk to CEC::CExynosCECAdapterCommunication::Process()@Base" 4.0.2+dfsg1-3~
 (c++)"non-virtual thunk to CEC::CExynosCECAdapterCommunication::~CExynosCECAdapterCommunication()@Base" 4.0.2+dfsg1-3~
 (c++)"non-virtual thunk to CEC::CUSBCECAdapterCommunication::Process()@Base" 2.1.4
 (c++)"non-virtual thunk to CEC::CUSBCECAdapterCommunication::~CUSBCECAdapterCommunication()@Base" 2.1.4
